			  Z80 ASSEMBLER - ZASM VER 1.6
                      	
  0100                	 ORG 100H
                      	
                      	;--------初期化----------
                      	
  0100  AF            	 XOR A
  0101  320D79        	 LD (790DH),A
  0104  213862        	 LD HL,PLV
  0107  115A62        	 LD DE,LV
  010A  012200        	 LD BC,34
  010D  EDB0          	 LDIR
  010F  115663        	 LD DE,FLAG
  0112  21C828        	 LD HL,GRD2
  0115  0E40          	 LD C,64
  0117  EDB0          	 LDIR
  0119  11512D        	 LD DE,AUTOME
  011C  21C828        	 LD HL,GRD2
  011F  0E78          	 LD C,120
  0121  EDB0          	 LDIR
                      	
  0123  AF            	 XOR A
  0124  32A463        	 LD (BF),A
  0127  210000        	 LD HL,0
  012A  39            	 ADD HL,SP
  012B  224706        	 LD (STACKP+1),HL
                      	
                      	;--------OPENING---------
                      	
  012E  CD631B        	 CALL GROR
  0131  CD511A        	 CALL GRO
  0134  3E05          	 LD A,5
  0136  119A29        	 LD DE,GROE1+66
  0139                	LOOP1:
  0139  217B36        	 LD HL,KAMI
  013C  010800        	 LD BC,8
  013F  EDB0          	 LDIR
  0141  218800        	 LD HL,136
  0144  19            	 ADD HL,DE
  0145  E5            	 PUSH HL
  0146  D1            	 POP DE
  0147  3D            	 DEC A
  0148  20EF          	 JR NZ,LOOP1
  014A  115E2C        	 LD DE,GROE6+54
  014D  0E24          	 LD C,36
  014F  218336        	 LD HL,SHIN
  0152  EDB0          	 LDIR
  0154  CD511A        	 CALL GRO
  0157  3E07          	 LD A,7
  0159  CD2117        	 CALL FLASHN
  015C  0605          	 LD B,5
  015E  CD1C1A        	 CALL GRD
  0161  0610          	 LD B,16
  0163  110400        	 LD DE,0004H
  0166  21C92D        	 LD HL,TITL
  0169  CDF1BF        	 CALL 0BFF1H
  016C  0605          	 LD B,5
  016E  110A02        	 LD DE,020AH
  0171  21D92D        	 LD HL,TIT1
  0174  CDF1BF        	 CALL 0BFF1H
  0177  0607          	 LD B,7
  0179  110A03        	 LD DE,030AH
  017C  21DE2D        	 LD HL,TIT2
  017F  CDF1BF        	 CALL 0BFF1H
  0182  219901        	 LD HL,AD1;ONEND
  0185  22F000        	 LD (0F0H),HL
  0188  110802        	 LD DE,0208H;CURSｲﾁ
  018B  ED53F200      	 LD (0F2H),DE
  018F  010302        	 LD BC,0203H
  0192  ED43F400      	 LD (0F4H),BC;CURSｹﾞﾝｶｲ
  0196  CD8118        	 CALL CURP
  0199  CDFDBC        	AD1:CALL 48381
  019C  F5            	 PUSH AF
  019D  CD8E18        	 CALL CURD
  01A0  F1            	 POP AF
  01A1  F5            	 PUSH AF
  01A2  CD5018        	 CALL CURS
  01A5  CD9B18        	 CALL CUR1
  01A8  F1            	 POP AF
  01A9  EE28          	 XOR 28H
  01AB  2803          	 JR Z,STR
  01AD  C36F1B        	 JP ONEND
  01B0  ED5BF200      	STR:LD DE,(0F2H)
  01B4  7A            	 LD A,D
  01B5  EE02          	 XOR 2
  01B7  CA8A25        	 JP Z,OPN
                      	
                      	;--------DATA LOAD----------
                      	
  01BA                	LOAD:
  01BA  3E01          	 LD A,1
  01BC  327B62        	 LD (URDL),A
  01BF  3A7D62        	 LD A,(SAVE)
  01C2  FE1F          	 CP 31
  01C4  D2EA01        	 JP NC,START
  01C7  B7            	 OR A
  01C8  CAEA01        	 JP Z,START
  01CB  217D62        	 LD HL,SAVE
  01CE  115A62        	 LD DE,LV
  01D1  012100        	 LD BC,33
  01D4  EDB0          	 LDIR
  01D6  219E62        	 LD HL,FSAVE
  01D9  115663        	 LD DE,FLAG
  01DC  0E40          	 LD C,64
  01DE  EDB0          	 LDIR
  01E0  21DE62        	 LD HL,MSAVE
  01E3  11512D        	 LD DE,AUTOME
  01E6  0E78          	 LD C,120
  01E8  EDB0          	 LDIR
                      	
                      	;---------START-----------
                      	
  01EA  CD2C25        	START:CALL GRPUT1
                      	
                      	;-------MAP LOAD--------
                      	
  01ED  3A7362        	MPL:LD A,(FL)
  01F0  3D            	 DEC A
  01F1  211341        	 LD HL,MPD1
  01F4  114000        	 LD DE,64
  01F7  CD3221        	 CALL XSAN
  01FA  22F000        	MPBL:LD (0F0H),HL
  01FD  11B040        	 LD DE,SMP+1
  0200  3E08          	 LD A,8
  0202                	MPBLL:;LOOP
  0202  010800        	 LD BC,8
  0205  EDB0          	 LDIR
  0207  13            	 INC DE
  0208  13            	 INC DE
  0209  3D            	 DEC A
  020A  20F6          	 JR NZ,MPBLL
  020C  21B040        	 LD HL,SMP+1
  020F  11B840        	 LD DE,SMP+9
  0212  010800        	 LD BC,8
  0215  C5            	LOOP6:PUSH BC
  0216  D5            	 PUSH DE;+9
  0217  E5            	 PUSH HL;+1
  0218  D5            	 PUSH DE;+9
  0219  E5            	 PUSH HL;+1
  021A  EDA0          	 LDI
  021C  D1            	 POP DE
  021D  1B            	 DEC DE
  021E  E1            	 POP HL
  021F  2B            	 DEC HL
  0220  EDA0          	 LDI
  0222  E1            	 POP HL
  0223  110A00        	 LD DE,10
  0226  19            	 ADD HL,DE
  0227  E5            	 PUSH HL
  0228  C1            	 POP BC
  0229  E1            	 POP HL
  022A  110A00        	 LD DE,10
  022D  19            	 ADD HL,DE
  022E  EB            	 EX DE,HL
  022F  C5            	 PUSH BC
  0230  E1            	 POP HL
  0231  C1            	 POP BC
  0232  0D            	 DEC C
  0233  20E0          	 JR NZ,LOOP6
  0235  21B840        	 LD HL,SMP+9
  0238  110841        	 LD DE,SMP+89
  023B  010A00        	 LD BC,10
  023E  C5            	 PUSH BC
  023F  EDB8          	 LDDR
  0241  21FE40        	 LD HL,SMP+79
  0244  11AE40        	 LD DE,SMP-1
  0247  C1            	 POP BC
  0248  EDB8          	 LDDR
  024A  21B040        	MPLB:LD HL,SMP+1
  024D  3A7462        	 LD A,(X)
  0250  5F            	 LD E,A
  0251  1600          	 LD D,0
  0253  19            	 ADD HL,DE
  0254  3A7562        	 LD A,(Y)
  0257  3C            	 INC A
  0258  47            	 LD B,A
  0259  1002          	 DJNZ LOOP7
  025B  1806          	 JR LOOP7+6
  025D  110A00        	LOOP7:LD DE,10
  0260  19            	 ADD HL,DE
  0261  10FA          	 DJNZ LOOP7
                      	
                      	;-----MAPMにﾏｯﾌﾟを配置------
                      	
  0263  3A7B62        	 LD A,(URDL)
  0266  FE02          	 CP 2
  0268  CAAC02        	 JP Z,MR
  026B  DA9302        	 JP C,MU
  026E  FE04          	 CP 4
  0270  CACF02        	 JP Z,ML
                      	;MD:
  0273  23            	 INC HL
  0274  110C41        	 LD DE,MAPM+3
  0277  010203        	 LD BC,0302H
  027A  7E            	MDL:LD A,(HL)
  027B  12            	 LD (DE),A
  027C  2B            	 DEC HL
  027D  13            	 INC DE
  027E  10FA          	 DJNZ MDL
  0280  C5            	 PUSH BC
  0281  010D00        	 LD BC,13
  0284  09            	 ADD HL,BC
  0285  110941        	 LD DE,MAPM
  0288  C1            	 POP BC
  0289  0603          	 LD B,3
  028B  0D            	 DEC C
  028C  20EC          	 JR NZ,MDL
  028E  CDB416        	 CALL HK
  0291  185B          	 JR MPP
  0293                	MU:
  0293  2B            	 DEC HL
  0294  110C41        	 LD DE,MAPM+3
  0297  010300        	 LD BC,3
  029A  EDB0          	 LDIR
  029C  010D00        	 LD BC,13
  029F  B7            	 OR A
  02A0  ED42          	 SBC HL,BC
  02A2  110941        	 LD DE,MAPM
  02A5  010300        	 LD BC,3
  02A8  EDB0          	 LDIR
  02AA  1842          	 JR MPP
  02AC                	MR:
  02AC  010A00        	 LD BC,10
  02AF  B7            	 OR A
  02B0  ED42          	 SBC HL,BC
  02B2  0603          	 LD B,3
  02B4  110C41        	 LD DE,MAPM+3
  02B7                	MRL:
  02B7  EDA0          	 LDI
  02B9  1B            	 DEC DE
  02BA  1B            	 DEC DE
  02BB  1B            	 DEC DE
  02BC  1B            	 DEC DE
  02BD  EDA0          	 LDI
  02BF  13            	 INC DE
  02C0  13            	 INC DE
  02C1  13            	 INC DE
  02C2  C5            	 PUSH BC
  02C3  010800        	 LD BC,8
  02C6  09            	 ADD HL,BC
  02C7  C1            	 POP BC
  02C8  10ED          	 DJNZ MRL
  02CA  CDB416        	 CALL HK
  02CD  181F          	 JR MPP
  02CF                	ML:
  02CF  010A00        	 LD BC,10
  02D2  B7            	 OR A
  02D3  ED42          	 SBC HL,BC
  02D5  0603          	 LD B,3
  02D7  110E41        	 LD DE,MAPM+5
  02DA  EDA8          	MLL:LDD
  02DC  1B            	 DEC DE
  02DD  1B            	 DEC DE
  02DE  EDA8          	 LDD
  02E0  13            	 INC DE
  02E1  13            	 INC DE
  02E2  13            	 INC DE
  02E3  C5            	 PUSH BC
  02E4  010C00        	 LD BC,12
  02E7  09            	 ADD HL,BC
  02E8  C1            	 POP BC
  02E9  10EF          	 DJNZ MLL
  02EB  CDB416        	 CALL HK
                      	
                      	;--------MAP 表示---------
                      	
  02EE                	MPP:;MAPL
  02EE  215004        	 LD HL,MPKIOK
  02F1  E5            	 PUSH HL
  02F2  111001        	 LD DE,0110H
  02F5  0608          	 LD B,8
  02F7  21E52D        	 LD HL,MESW1
  02FA  CDF1BF        	 CALL 0BFF1H
  02FD  110802        	 LD DE,0208H
  0300  0606          	 LD B,6
  0302  21ED2D        	 LD HL,MESW1+8
  0305  CDF1BF        	 CALL 0BFF1H
  0308  110803        	 LD DE,0308H
  030B  0607          	 LD B,7
  030D  21F32D        	 LD HL,MESW1+14
  0310  CDF1BF        	 CALL 0BFF1H
  0313  110804        	 LD DE,0408H
  0316  0606          	 LD B,6
  0318  21FA2D        	 LD HL,MESW1+21
  031B  CDF1BF        	 CALL 0BFF1H
  031E                	MAPL:		;
  031E  AF            	 XOR A
  031F  32FC00        	 LD (0FCH),A
  0322  3A0941        	 LD A,(MAPM)
  0325  21A537        	 LD HL,KB1
  0328  CB47          	 BIT 0,A
  032A  C4C603        	 CALL NZ,MG1
                      	;DOOR
  032D  213538        	 LD HL,DOA1
  0330  CB67          	 BIT 4,A
  0332  C4C603        	 CALL NZ,MG1
                      	;MAPR		;
  0335  3A0B41        	 LD A,(MAPM+2)
  0338  21A537        	 LD HL,KB1
  033B  CB47          	 BIT 0,A
  033D  C4D003        	 CALL NZ,MG1+10
                      	;DOOR
  0340  213538        	 LD HL,DOA1
  0343  CB67          	 BIT 4,A
  0345  C4D003        	 CALL NZ,MG1+10
                      	;MAPS		;
  0348  3A0A41        	 LD A,(MAPM+1)
  034B  21A537        	 LD HL,KB1
  034E  CB47          	 BIT 0,A
  0350  C4CB03        	 CALL NZ,MG1+5
  0353  CB4F          	 BIT 1,A
  0355  C42204        	 CALL NZ,MG8
  0358  CB5F          	 BIT 3,A
  035A  C41804        	 CALL NZ,MG7
  035D                	DOOR:
  035D  213538        	 LD HL,DOA1
  0360  CB67          	 BIT 4,A
  0362  C4CB03        	 CALL NZ,MG1+5
  0365  214D38        	 LD HL,DOA2R
  0368  CB6F          	 BIT 5,A
  036A  C42504        	 CALL NZ,MG8+3
  036D  213B38        	 LD HL,DOA2L
  0370  CB7F          	 BIT 7,A
  0372  C41B04        	 CALL NZ,MG7+3
  0375                	MAPVL:
  0375  3A0C41        	 LD A,(MAPM+3)
  0378  CB47          	 BIT 0,A
  037A  C4DB03        	 CALL NZ,MG4
                      	;DOOR
  037D  216B38        	 LD HL,DOA3+12
  0380  CB67          	 BIT 4,A
  0382  C4DE03        	 CALL NZ,MG4+3
  0385                	MAPVR:
  0385  3A0E41        	 LD A,(MAPM+5)
  0388  CB47          	 BIT 0,A
  038A  C40E04        	 CALL NZ,MG6
                      	;DOOR
  038D  215F38        	 LD HL,DOA3
  0390  CB67          	 BIT 4,A
  0392  C41104        	 CALL NZ,MG6+3
  0395                	MAPV:
  0395  3A0D41        	 LD A,(MAPM+4)
  0398  CB47          	 BIT 0,A
  039A  C4B104        	 CALL NZ,KBSET
  039D  C4F603        	 CALL NZ,MG5
  03A0  CB4F          	 BIT 1,A
  03A2  C43604        	 CALL NZ,MG10
  03A5  CB5F          	 BIT 3,A
  03A7  C42C04        	 CALL NZ,MG9
                      	;DOOR
  03AA  CB67          	 BIT 4,A
  03AC  C4B904        	 CALL NZ,KBOFF
  03AF  215F38        	 LD HL,DOA3
  03B2  C4F903        	 CALL NZ,MG5+3
  03B5  219538        	 LD HL,DOA4R
  03B8  CB6F          	 BIT 5,A
  03BA  C43904        	 CALL NZ,MG10+3
  03BD  21AD38        	 LD HL,DOA4L
  03C0  CB7F          	 BIT 7,A
  03C2  C42F04        	 CALL NZ,MG9+3
  03C5  C9            	 RET
                      	
                      	;------迷宮ｸﾞﾗﾌｨｯｸ表示-----
                      	
  03C6  110202        	MG1:LD DE,0202H
  03C9  1808          	 JR M1
  03CB  110302        	 LD DE,0203H;MG2:
  03CE  1803          	 JR M1
  03D0  110402        	 LD DE,0204H;MG3:
  03D3  0606          	M1:LD B,6
  03D5  08            	 EX AF,AF'
  03D6  CDD0BF        	 CALL 0BFD0H
  03D9  08            	 EX AF,AF'
  03DA  C9            	 RET
  03DB  21DB37        	MG4:LD HL,KB3L1
  03DE  110101        	 LD DE,0101H
  03E1  0603          	 LD B,3
  03E3                	M2:
  03E3  08            	 EX AF,AF'
  03E4  D5            	 PUSH DE;LOOP
  03E5  C5            	 PUSH BC
  03E6  0606          	 LD B,6
  03E8  CDD0BF        	 CALL 0BFD0H
  03EB  010D00        	 LD BC,13
  03EE  09            	 ADD HL,BC
  03EF  C1            	 POP BC
  03F0  D1            	 POP DE 
  03F1  14            	 INC D
  03F2  10F0          	 DJNZ M2+1
  03F4  08            	 EX AF,AF'
  03F5  C9            	 RET
  03F6                	MG5:
  03F6  21CF37        	 LD HL,KB3R1
  03F9  110201        	 LD DE,0102H
  03FC  0603          	 LD B,3
  03FE  08            	 EX AF,AF'
  03FF  C5            	 PUSH BC;LOOP
  0400  0612          	 LD B,18
  0402  1E02          	 LD E,2
  0404  CDD0BF        	 CALL 0BFD0H
  0407  23            	 INC HL
  0408  14            	 INC D
  0409  C1            	 POP BC
  040A  10F3          	 DJNZ MG5+9
  040C  08            	 EX AF,AF'
  040D  C9            	 RET
  040E  21CF37        	MG6:LD HL,KB3R1
  0411  110501        	 LD DE,0105H
  0414  0603          	 LD B,3
  0416  18CB          	 JR M2
  0418  21AB37        	MG7:LD HL,KB2L1
  041B  110201        	 LD DE,0102H
  041E  0603          	 LD B,3
  0420  181E          	 JR M3
  0422  21BD37        	MG8:LD HL,KB2R1
  0425  0603          	 LD B,3
  0427  110401        	 LD DE,0104H
  042A  1814          	 JR M3
  042C  210538        	MG9:LD HL,KB4L1
  042F  0604          	 LD B,4
  0431  110101        	 LD DE,0101H
  0434  180A          	 JR M3
  0436  211D38        	MG10:LD HL,KB4R1
  0439  0604          	 LD B,4
  043B  110501        	 LD DE,0105H
  043E  1800          	 JR M3
  0440                	M3:
  0440  08            	 EX AF,AF'
  0441  D5            	 PUSH DE	;LOOP
  0442  C5            	 PUSH BC
  0443  0606          	 LD B,6
  0445  CDD0BF        	 CALL 0BFD0H
  0448  C1            	 POP BC
  0449  D1            	 POP DE 
  044A  14            	 INC D
  044B  23            	 INC HL
  044C  10F3          	 DJNZ M3+1
  044E  08            	 EX AF,AF'
  044F  C9            	 RET
                      	
                      	;---------ﾏｯﾌﾟ記憶----------
                      	
  0450                	MPKIOK:
  0450  3A7362        	 LD A,(FL)
  0453  3D            	 DEC A
  0454  21512D        	 LD HL,AUTOME
  0457  110800        	 LD DE,8
  045A  CD3221        	 CALL XSAN
  045D  3A7562        	 LD A,(Y)
  0460  110100        	 LD DE,1
  0463  CD3221        	 CALL XSAN
  0466  11DA04        	 LD DE,IVSBIG
  0469  D5            	 PUSH DE
  046A  3A7462        	 LD A,(X)
  046D  B7            	 OR A
  046E  2827          	 JR Z,MPON0
  0470  3D            	 DEC A
  0471  2821          	 JR Z,MPON1
  0473  3D            	 DEC A
  0474  281B          	 JR Z,MPON2
  0476  3D            	 DEC A
  0477  2815          	 JR Z,MPON3
  0479  3D            	 DEC A
  047A  280F          	 JR Z,MPON4
  047C  3D            	 DEC A
  047D  2809          	 JR Z,MPON5
  047F  3D            	 DEC A
  0480  2803          	 JR Z,MPON6
  0482                	MPON7:
  0482  CBC6          	 SET 0,(HL)
  0484  C9            	 RET
  0485                	MPON6:
  0485  CBCE          	 SET 1,(HL)
  0487  C9            	 RET
  0488                	MPON5:
  0488  CBD6          	 SET 2,(HL)
  048A  C9            	 RET
  048B                	MPON4:
  048B  CBDE          	 SET 3,(HL)
  048D  C9            	 RET
  048E                	MPON3:
  048E  CBE6          	 SET 4,(HL)
  0490  C9            	 RET
  0491                	MPON2:
  0491  CBEE          	 SET 5,(HL)
  0493  C9            	 RET
  0494                	MPON1:
  0494  CBF6          	 SET 6,(HL)
  0496  C9            	 RET
  0497                	MPON0:
  0497  CBFE          	 SET 7,(HL)
  0499  C9            	 RET
                      	
                      	;---------壁ぶつかる------
                      	
  049A                	KBA:
  049A  110202        	 LD DE,0202H
  049D  0603          	 LD B,3
  049F  21AE04        	 LD HL,KBSET-3
  04A2  CDF1BF        	 CALL 0BFF1H
  04A5  CD3F24        	 CALL BEPDRC
  04A8  CD3A17        	 CALL TIM30
  04AB  C3AB16        	 JP MRET
  04AE  B2C321        	 DB "ｲﾃ!"
                      	
                      	;-------壁認識----------
                      	
  04B1                	KBSET:
  04B1  08            	 EX AF,AF'
  04B2  3EFF          	 LD A,0FFH
  04B4  32F000        	 LD (0F0H),A
  04B7  08            	 EX AF,AF'
  04B8  C9            	 RET
                      	
                      	;-------壁無し認識------
                      	
  04B9                	KBOFF:
  04B9  08            	 EX AF,AF'
  04BA  AF            	 XOR A
  04BB  32F000        	 LD (0F0H),A
  04BE  3D            	 DEC A
  04BF  32FC00        	 LD (0FCH),A
  04C2  08            	 EX AF,AF'
  04C3  C9            	 RET
                      	
                      	;---------ドク------------
                      	
  04C4                	DOKD:
  04C4  3E01          	 LD A,1
  04C6  CD2117        	 CALL FLASHN
  04C9  3A5B62        	 LD A,(HP)
  04CC  D602          	 SUB 2
  04CE  E1            	 POP HL
  04CF  CA0522        	 JP Z,AOVER
  04D2  DA0522        	 JP C,AOVER
  04D5  E5            	 PUSH HL
  04D6  325B62        	 LD (HP),A
  04D9  C9            	 RET
                      	
                      	;--------ｲﾍﾞﾝﾄｻｰﾁ---------
                      	
  04DA                	IVSBIG:
  04DA  21D344        	 LD HL,IVENT
  04DD  06FF          	 LD B,0FFH
  04DF  3A7362        	 LD A,(FL)
  04E2  3D            	 DEC A
  04E3  2808          	 JR Z,INSST
  04E5  57            	 LD D,A
  04E6  3EFF          	 LD A,0FFH
  04E8                	INS:
  04E8  EDB1          	 CPIR
  04EA  15            	 DEC D
  04EB  20FB          	 JR NZ,INS
                      	
                      	;--------SARCH----------
                      	
  04ED                	INSST:
  04ED  7E            	 LD A,(HL)
  04EE  E6F0          	 AND 11110000B
  04F0  0F            	 RRCA
  04F1  0F            	 RRCA
  04F2  0F            	 RRCA
  04F3  0F            	 RRCA
  04F4  5F            	 LD E,A
  04F5  3A7462        	 LD A,(X)
  04F8  AB            	 XOR E
  04F9  2027          	 JR NZ,INSEDF
  04FB  7E            	 LD A,(HL)
  04FC  E60F          	 AND 00001111B
  04FE  5F            	 LD E,A
  04FF  3A7562        	 LD A,(Y)
  0502  AB            	 XOR E
  0503  201D          	 JR NZ,INSEDF
  0505  23            	 INC HL
  0506  7E            	 LD A,(HL);IV NO.ﾀﾞｲﾆｭｳ
  0507  3D            	 DEC A
  0508  23            	 INC HL
  0509  E5            	 PUSH HL
  050A  6F            	 LD L,A
  050B  2600          	 LD H,0
  050D  29            	 ADD HL,HL
  050E  112E05        	 LD DE,STABLE
  0511  19            	 ADD HL,DE
  0512  5E            	 LD E,(HL)
  0513  23            	 INC HL
  0514  56            	 LD D,(HL)
  0515  EB            	 EX DE,HL
  0516  E9            	 JP (HL)
  0517                	RETSAC:
  0517  E1            	 POP HL
  0518  3EFF          	 LD A,0FFH
  051A  EDA1          	 CPI
  051C  CA0406        	 JP Z,BTIN
  051F  2B            	 DEC HL
  0520  18CB          	 JR INSST
  0522                	INSEDF:
  0522  23            	 INC HL
  0523  23            	 INC HL
  0524  3EFF          	 LD A,0FFH
  0526  EDA1          	 CPI
  0528  CA0406        	 JP Z,BTIN	;MALP
  052B  2B            	 DEC HL
  052C  18BF          	 JR INSST
  052E                	STABLE:
  052E  8C46D046DE4826	 DW IV1,IV2,IV3,IV4,IV5,IV6,IV7,IV8
  053E  74499B495B4960	 DW IV9,IVA,IVB,IVC,IVD,IVE,IVF
  054C  CE49D9490C4A17	 DW IV10,IV11,IV12,IV13,IV14,IV15,IV16,IV17
  055C  B14BDB4BEC4B25	 DW IV18,IV19,IV1A,IV1B,IV1C,IV1D,IV1E,IV1F
  056C  D54CDD4CEE4C00	 DW IV20,IV21,IV22,IV23,IV24,IV25,IV26,IV27
  057C  F34D0F4E194E3C	 DW IV28,IV29,IV2A,IV2B,IV2C,IV2D,IV2E,IV2F
  058C  A450AB50C250D1	 DW IV30,IV31,IV32,IV33,IV34,IV35,IV36,IV37
  059C  5451AE51B251B6	 DW IV38,IV39,IV3A,IV3B,IV3C,IV3D,IV3E,IV3F
  05AC  2C5242526D5275	 DW IV40,IV41,IV42,IV43,IV44,IV45,IV46,IV47
  05BC  07530F53235348	 DW IV48,IV49,IV4A,IV4B,IV4C,IV4D,IV4E,IV4F
  05CC  D554E954FD5411	 DW IV50,IV51,IV52,IV53,IV54,IV55,IV56,IV57
  05DC  2158C759E8593E	 DW IV58,IV59,IV5A,IV5B,IV5C,IV5D,IV5E,IV5F
  05EC  F25C315D605D64	 DW IV60,IV61,IV62,IV63,IV64,IV65;,IV66,IV67
                      	; DW IV68,IV69,IV6A,IV6B,IV6C,IV6D,IV6E,IV6F
                      	; DW IV70,IV71,IV72,IV73,IV74,IV75,IV76,IV77
                      	; DW IV78,IV79,IV7A,IV7B,IV7C,IV7D,IV7E,IV7F
                      	; DW IV80,IV81,IV82,IV83,IV84,IV85,IV86,IV87
                      	; DW IV88,IV89,IV8A,IV8B,IV8C,IV8D,IV8E,IV8F
                      	; DW IV90,IV91,IV92,IV93,IV94,IV95,IV96,IV97
                      	; DW IV98,IV99,IV9A,IV9B,IV9C,IV9D,IV9E,IV9F
                      	; DW IVA0,IVA1,IVA2,IVA3,IVA4,IVA5,IVA6,IVA7
                      	; DW IVA8,IVA9,IVAA,IVAB,IVAC,IVAD,IVAE,IVAF
                      	; DW IVB0,IVB1,IVB2,IVB3,IVB4,IVB5,IVB6,IVB7
                      	; DW IVB8,IVB9,IVBA,IVBB,IVBC,IVBD,IVBE,IVBF
                      	; DW IVC0,IVC1,IVC2,IVC3,IVC4,IVC5,IVC6,IVC7
                      	; DW IVC8,IVC9,IVCA,IVCB,IVCC,IVCD,IVCE,IVCF
                      	; DW IVD0,IVD1,IVD2,IVD3,IVD4,IVD5,IVD6,IVD7
                      	; DW IVD8,IVD9,IVDA,IVDB,IVDC,IVDD,IVDE,IVDF
                      	; DW IVE0,IVE1,IVE2,IVE3,IVE4,IVE5,IVE6,IVE7
                      	; DW IVE8,IVE9,IVEA,IVEB,IVEC,IVED,IVEE,IVEF
                      	; DW IVF0,IVF1,IVF2,IVF3,IVF4,IVF5,IVF6,IVF7
                      	; DW IVF8,IVF9,IVFA,IVFB,IVFC,IVFD,IVFE,IVFF
                      	
                      	;------ﾊﾞﾄﾙ割り込み------
  05F8                	BTINM:
  05F8  B5BAB3C9BAB3B6	 DB "ｵｺｳﾉｺｳ","ｶｶﾞｷﾚﾀ"
  0604                	BTIN:
  0604  3A9163        	 ld A,(flag+3bh)
  0607  17            	 rla
  0608  382E          	 jr c,MALP	;d
  060A  3AD800        	 LD A,(0D8H)	;d
  060D  FE54          	 CP 54H		;d
  060F  2827          	 Jr Z,MALP	;d
  0611  3AF800        	 LD A,(0F8H)
  0614  FE54          	 CP 54H
  0616  281C          	 JR Z,BTS
  0618  3A7E63        	 LD A,(FLAG+28H)
  061B  B7            	 OR A
  061C  280E          	 JR Z,BTINL
  061E  3D            	 DEC A
  061F  327E63        	 LD (FLAG+28H),A
  0622  2010          	 JR NZ,BTS
  0624  21F805        	 LD HL,BTINM
  0627  0E0C          	 LD C,12
  0629  CD4B19        	 CALL MSO2
  062C                	BTINL:
  062C  CD791B        	 CALL RAND
  062F  FE1D          	 CP 29
  0631  DA921B        	 JP C,BATTLE
  0634                	BTS:
  0634  AF            	 XOR A
  0635  32F800        	 LD (0F8H),A
                      	
                      	;--------行動選択---------
                      	
  0638                	MALP:
  0638  CDFDBC        	 CALL 48381
  063B  11E62D        	 LD DE,MESWD
  063E  010600        	 LD BC,6
  0641  21C828        	 LD HL,GRD2
  0644  EDB0          	 LDIR		;INSPﾖｳ
  0646                	STACKP:
  0646  310000        	 LD SP,0
  0649  325B06        	 LD (MALPL2-1),A
  064C  3A6662        	 LD A,(ST)
  064F  B7            	 OR A
  0650  C4C404        	 CALL NZ,DOKD
  0653  21A363        	 LD HL,STF
  0656  AF            	 XOR A
  0657  77            	 LD (HL),A
  0658  23            	 INC HL
  0659  77            	 LD (HL),A
  065A  3E00          	 LD A,0
  065C                	MALPL2:
  065C  FE17          	 CP 17H		;M:MANU
  065E  2837          	 JR Z,MANU
  0660  FE31          	 CP 31H		;I:INSP
  0662  CA1E13        	 JP Z,INSP
  0665  FE0B          	 CP 0BH		;D:DATA
  0667  CA5D13        	 JP Z,DATA
  066A  FE05          	 CP 05H		;R:READ
  066C  CA9C15        	 JP Z,READ
  066F  08            	 EX AF,AF'
  0670  3E80          	 LD A,128
  0672  213E13        	 LD HL,BLKWI1-1
  0675  A6            	 AND (HL)
  0676  77            	 LD (HL),A
  0677  08            	 EX AF,AF'
  0678  FE1F          	 CP 1FH
  067A  CA1F16        	 JP Z,MDOWN
  067D  FE20          	 CP 20H
  067F  CA3B16        	 JP Z,MUP
  0682  FE21          	 CP 21H
  0684  CA8B16        	 JP Z,MLEFT
  0687  FE22          	 CP 22H
  0689  CA9C16        	 JP Z,MRIGHT
  068C  FE51          	 CP 51H;ON
  068E  C8            	 RET Z
  068F  3E54          	 LD A,54H
  0691  32F800        	 LD (0F8H),A
  0694  C3AB16        	 JP MRET	; JR MALP
                      	
                      	;---------Mボタン---------
                      	
  0697                	MANU:
  0697  21182E        	 LD HL,DATMS1+24
  069A  0E18          	 LD C,24
  069C  CD3319        	 CALL MSOP
  069F                	MANMIN:
  069F  CDD918        	 CALL CURSOL
  06A2                	MANMIS:
  06A2  3AF300        	 LD A,(0F3H)
  06A5  FE01          	 CP 1
  06A7  CCBB06        	 CALL Z,MANITM
  06AA  FE02          	 CP 2
  06AC  CA590F        	 JP Z,MANSTS
  06AF  FE03          	 CP 3
  06B1  CA9B10        	 JP Z,MANMAG
  06B4  C3AB16        	 JP MRET;JR MRET
  06B7                	BUYSEL:
  06B7  3E54          	 LD A,54H
  06B9  1801          	 JR MANITM+1
  06BB                	MANITM:;Cx=ｲﾍﾞﾝﾄｱｲﾃﾑ 8x=ｸｽﾘ 4x=ﾖﾛｲ 2x=ﾀﾃ 1x=ｹﾝ	;BTITEM兼用
  06BB  AF            	 XOR A
  06BC  32F700        	 LD (0F7H),A
  06BF  11032C        	 LD DE,2C03H
  06C2  ED53F200      	 LD (0F2H),DE
  06C6  AF            	 XOR A
  06C7  32F600        	 LD (0F6H),A
  06CA  110334        	 LD DE,3403H
  06CD  060B          	 LD B,11
  06CF  216762        	 LD HL,ITEM
  06D2                	LOOP8:
  06D2  E5            	 PUSH HL
  06D3  C5            	 PUSH BC
  06D4  7E            	 LD A,(HL);LOOP
  06D5  17            	 RLA
  06D6  384F          	 JR C,ITEPRI
  06D8  17            	 RLA
  06D9  3816          	 JR C,ARMPRI
  06DB  17            	 RLA
  06DC  383A          	 JR C,SHIPRI
  06DE  17            	 RLA
  06DF  383C          	 JR C,SWOPRI
  06E1                	NOTPRI:
  06E1  21C828        	 LD HL,GRD2
  06E4  180E          	 JR ARMPRI+3
  06E6                	ITRETP:
  06E6  C1            	 POP BC
  06E7  E1            	 POP HL
  06E8  23            	 INC HL
  06E9  10E7          	 DJNZ LOOP8
  06EB                	ITEMPE:
  06EB  CD511A        	 CALL GRO
  06EE  C32F07        	 JP ITEMUS
  06F1                	ARMPRI:
  06F1  21BD36        	 LD HL,ICOM+16
  06F4  0608          	 LD B,8
  06F6  D5            	 PUSH DE
  06F7  CD8A1A        	 CALL GRP
  06FA  D1            	 POP DE
  06FB  7B            	 LD A,E
  06FC  1E0C          	 LD E,12
  06FE  83            	 ADD A,E
  06FF  5F            	 LD E,A
  0700  3AF600        	 LD A,(0F6H)
  0703  3C            	 INC A
  0704  32F600        	 LD (0F6H),A
  0707  FE04          	 CP 4
  0709  20DB          	 JR NZ,ITRETP
  070B  1E03          	 LD E,3
  070D  7A            	 LD A,D
  070E  1612          	 LD D,18
  0710  82            	 ADD A,D
  0711  57            	 LD D,A
  0712  AF            	 XOR A
  0713  32F600        	 LD (0F6H),A
  0716  18CE          	 JR ITRETP
  0718                	SHIPRI:
  0718  21B536        	 LD HL,ICOM+8
  071B  18D7          	 JR ARMPRI+3
  071D                	SWOPRI:
  071D  21AD36        	 LD HL,ICOM
  0720  18D2          	 JR ARMPRI+3
  0722                	DRAPRI:
  0722  21C536        	 LD HL,ICOM+24
  0725  18CD          	 JR ARMPRI+3
  0727                	ITEPRI:
  0727  17            	 RLA
  0728  30F8          	 JR NC,DRAPRI
  072A  21CD36        	 LD HL,ICOM+32
  072D  18C5          	 JR ARMPRI+3
  072F                	ITEMUS:
  072F  21D536        	 LD HL,ICOM+40
  0732  060B          	 LD B,11
  0734  112757        	 LD DE,5727H
  0737  CD8A1A        	 CALL GRP
  073A  AF            	 XOR A
  073B  CDDA17        	 CALL CURS2
  073E  AF            	 XOR A
  073F  1810          	 JR ITK
  0741                	ITLP1:
  0741  CDFDBC        	 CALL 48381
  0744  CD4E24        	 CALL BEPMSC
  0747  F5            	 PUSH AF
  0748  CD4318        	 CALL CURD2
  074B  F1            	 POP AF
  074C  F5            	 PUSH AF
  074D  CDDA17        	 CALL CURS2
  0750  F1            	 POP AF
  0751                	ITK:
  0751  F5            	 PUSH AF
  0752  1E00          	 LD E,0
  0754  ED4BF200      	 LD BC,(0F2H)
  0758  79            	 LD A,C
  0759  FE03          	 CP 3
  075B  280B          	 JR Z,ITKE
  075D  1C            	 INC E
  075E  FE0F          	 CP 15
  0760  2806          	 JR Z,ITKE
  0762  1C            	 INC E
  0763  FE1B          	 CP 27
  0765  2801          	 JR Z,ITKE
  0767  1C            	 INC E
  0768                	ITKE:
  0768  78            	 LD A,B
  0769  FE2C          	 CP 2CH
  076B  280C          	 JR Z,ITKE2
  076D  1C            	 INC E
  076E  1C            	 INC E
  076F  1C            	 INC E
  0770  1C            	 INC E
  0771  FE3E          	 CP 3EH
  0773  2804          	 JR Z,ITKE2
  0775  1C            	 INC E
  0776  1C            	 INC E
  0777  1C            	 INC E
  0778  1C            	 INC E
  0779                	ITKE2:
  0779  216762        	 LD HL,ITEM
  077C  1600          	 LD D,0
  077E  19            	 ADD HL,DE
  077F  F1            	 POP AF
  0780  FE28          	 CP 28H
  0782  CAC607        	 JP Z,ITMUSE	;HL OK
  0785  7E            	 LD A,(HL)
  0786  F5            	 PUSH AF
  0787  17            	 RLA
  0788  3810          	 JR C,ITMESP
  078A  17            	 RLA
  078B  382A          	 JR C,ARMESP
  078D  17            	 RLA
  078E  382C          	 JR C,SHMESP
  0790  17            	 RLA
  0791  382E          	 JR C,SWMESP
  0793  F1            	 POP AF
  0794  CD1719        	 CALL MSD
  0797  C34107        	 JP ITLP1
  079A                	ITMESP:
  079A  17            	 RLA
  079B  3815          	 JR C,IVMESP
  079D  21C02E        	 LD HL,ITLIST
  07A0                	ITP2:
  07A0  F1            	 POP AF
  07A1  E60F          	 AND 0FH
  07A3  3D            	 DEC A
  07A4  110800        	 LD DE,8
  07A7  CD3221        	 CALL XSAN
  07AA  0E08          	 LD C,8
  07AC  CD3319        	 CALL MSOP
  07AF  C34107        	 JP ITLP1
  07B2                	IVMESP:
  07B2  21F02E        	 LD HL,IVITLS
  07B5  18E9          	 JR ITP2
  07B7                	ARMESP:
  07B7  21902E        	 LD HL,ARMOR
  07BA  18E4          	 JR ITP2
  07BC                	SHMESP:
  07BC  21602E        	 LD HL,SHIELD
  07BF  18DF          	 JR ITP2
  07C1                	SWMESP:
  07C1  21302E        	 LD HL,SWORD
  07C4  18DA          	 JR ITP2
  07C6                	ITMUSE:
  07C6  E5            	 PUSH HL
  07C7  C1            	 POP BC
  07C8  3AF700        	 LD A,(0F7H)
  07CB  FE54          	 CP 54H
  07CD  C8            	 RET Z		;戻り値BC,HLでｼｮｯﾌﾟへﾘﾀｰﾝ
  07CE  7E            	 LD A,(HL)
  07CF  F5            	 PUSH AF
  07D0  17            	 RLA
  07D1  3819          	 JR C,ITUSE
  07D3  17            	 RLA
  07D4  3823          	 JR C,ARUSE
  07D6  17            	 RLA
  07D7  3825          	 JR C,SHUSE
  07D9  17            	 RLA
  07DA  3827          	 JR C,SWUSE
  07DC  F1            	 POP AF
  07DD  FE0F          	 CP 0FH
  07DF  C24107        	 JP NZ,ITLP1
  07E2  CD2C25        	 CALL GRPUT1
  07E5  3E54          	 LD A,54H
  07E7  32F800        	 LD (0F8H),A
  07EA  AF            	 XOR A
  07EB  C9            	 RET
  07EC                	ITUSE:
  07EC  17            	 RLA
  07ED  3805          	 JR C,IVUSE
  07EF  211408        	 LD HL,ITACT
  07F2  1812          	 JR ITEML1
  07F4                	IVUSE:
  07F4  212008        	 LD HL,IVACT
  07F7  180D          	 JR ITEML1
  07F9                	ARUSE:
  07F9  213E08        	 LD HL,ARACT
  07FC  1808          	 JR ITEML1
  07FE                	SHUSE:
  07FE  214A08        	 LD HL,SHACT
  0801  1803          	 JR ITEML1
  0803                	SWUSE:
  0803  215608        	 LD HL,SWACT
  0806                	ITEML1:
  0806  F1            	 POP AF
  0807  3D            	 DEC A
  0808  E60F          	 AND 0FH
  080A  07            	 RLCA
  080B  1600          	 LD D,0
  080D  5F            	 LD E,A
  080E  19            	 ADD HL,DE
  080F  5E            	 LD E,(HL)
  0810  23            	 INC HL
  0811  56            	 LD D,(HL)
  0812  EB            	 EX DE,HL
  0813  E9            	 JP (HL)
  0814                	ITACT:
  0814  620866088808A7	 DW IT1,IT2,IT3,IT4,IT5,IT6
  0820                	IVACT:
  0820  E3083109800B92	 DW TV1,TV2,TV3,TV4,TV5,TV6,TV7,TV8,TV9,TVA,TVB,TVC,TVD,TVE,TVF
  083E                	ARACT:
  083E  680EA00EA40EA8	 DW AR1,AR2,AR3,AR4,AR5,AR6
  084A                	SHACT:
  084A  B40EB80EBC0EC0	 DW SH1,SH2,SH3,SH4,SH5,SH6
  0856                	SWACT:
  0856  CC0EF60EFA0EFE	 DW SW1,SW2,SW3,SW4,SW5,SW6		;BC=格納アドレス
  0862                	IT1:;ｷｽﾞｸﾞｽﾘ
  0862  1E50          	 LD E,80
  0864  1802          	 JR IT2+2
  0866                	IT2:;ｺﾅｸﾞｽﾘ
  0866  1EFF          	 LD E,255
  0868  AF            	 XOR A
  0869  02            	 LD (BC),A
  086A  3A5B62        	 LD A,(HP)
  086D  83            	 ADD A,E
  086E  3807          	 JR C,IT2L1
  0870  ED5B5C62      	 LD DE,(MHP)
  0874  BB            	 CP E
  0875  3803          	 JR C,IT2L1+3
  0877                	IT2L1:
  0877  3A5C62        	 LD A,(MHP)
  087A  325B62        	 LD (HP),A
  087D  21230F        	 LD HL,HPUPMS
  0880  0E0C          	 LD C,12
  0882  CD2F19        	 CALL MSO
  0885  C30A0F        	 JP ITMEND
  0888                	IT3:
  0888  AF            	 XOR A
  0889  326662        	 LD (ST),A
  088C  C5            	 PUSH BC
  088D  212F0F        	 LD HL,HPMPUM
  0890  0E0C          	 LD C,12
  0892  CD2F19        	 CALL MSO
  0895  215C62        	 LD HL,MHP
  0898  7E            	 LD A,(HL)
  0899  2B            	 DEC HL
  089A  77            	 LD (HL),A
  089B  23            	 INC HL
  089C  23            	 INC HL
  089D  23            	 INC HL
  089E                	MPUP:
  089E  7E            	 LD A,(HL)
  089F  2B            	 DEC HL
  08A0  77            	 LD (HL),A
  08A1  C1            	 POP BC
  08A2  AF            	 XOR A
  08A3  02            	 LD (BC),A
  08A4  C30A0F        	 JP ITMEND
  08A7                	IT4:
  08A7  C5            	 PUSH BC
  08A8  213B0F        	 LD HL,MPUPMS
  08AB  0E0C          	 LD C,12
  08AD  CD2F19        	 CALL MSO
  08B0  215E62        	 LD HL,MMP
  08B3  18E9          	 JR MPUP
  08B5                	IT5:
  08B5  AF            	 XOR A
  08B6  326662        	 LD (ST),A
  08B9  02            	 LD (BC),A
  08BA  21470F        	 LD HL,STUPMS
  08BD  0E0C          	 LD C,12
  08BF  CD2F19        	 CALL MSO
  08C2  C30A0F        	 JP ITMEND
  08C5                	IT6:
  08C5  AF            	 XOR A
  08C6  02            	 LD (BC),A
  08C7  3E7F          	 LD A,127
  08C9  327E63        	 LD (FLAG+28H),A
  08CC  21D708        	 LD HL,IT6M
  08CF  0E0C          	 LD C,12
  08D1  CD2F19        	 CALL MSO
  08D4  C30A0F        	 JP ITMEND
  08D7                	IT6M:
  08D7  CFD3C9B6DE20B2	 DB "ﾏﾓﾉｶﾞ ","ｲﾅｸﾅｯﾀ"
  08E3                	TV1:
  08E3  3A7362        	 LD A,(FL)
  08E6  FE03          	 CP 3
  08E8  2021          	 JR NZ,TVEND
  08EA  2A7462        	 LD HL,(X)
  08ED  7D            	 LD A,L
  08EE  FE06          	 CP 6		;
  08F0  2019          	 JR NZ,TVEND
  08F2  7C            	 LD A,H
  08F3  FE01          	 CP 1		;
  08F5  2014          	 JR NZ,TVEND
  08F7  C5            	 PUSH BC
  08F8  211909        	 LD HL,TV1M
  08FB  0E18          	 LD C,24
  08FD  CD4B19        	 CALL MSO2
  0900  3E80          	 LD A,80H
  0902  325863        	 LD (FLAG+2),A
  0905  AF            	 XOR A
  0906  C1            	 POP BC
  0907  02            	 LD (BC),A
  0908  C30A0F        	 JP ITMEND
  090B                	TVEND:
  090B  218B2F        	 LD HL,YAMEYO
  090E  0E18          	 LD C,24
  0910  00            	 NOP
  0911  CD4B19        	 CALL MSO2
  0914  CD2C25        	 CALL GRPUT1
  0917  37            	 SCF
  0918  C9            	 RET
  0919                	TV1M:
  0919  C0CFCA202020BD	 DB "ﾀﾏﾊ   ","ｽｯﾄﾊｲﾘ","ﾄｵｸﾃﾞ ","ｵﾄｶﾞｼﾀ" 
  0931                	TV2:						;ﾁｶﾗﾉｵｰﾌﾞ
  0931  217332        	 LD HL,RIDNG		;EX1
  0934  119A09        	 LD DE,TV2MS		;EX2
  0937  3E06          	 LD A,06		;EX3	MS LOOP
  0939  D9            	 EXX
  093A  010B04        	 LD BC,040BH		;B=FL C=FLAG
  093D  110105        	 LD DE,0501H		;D=X E=Y
  0940                	TV2LJ:
  0940  D9            	 EXX
  0941  225909        	 LD (TV2EX1+1),HL
  0944  ED535F09      	 LD (TV2EX2+1),DE
  0948  326309        	 LD (TV2EX3+2),A
  094B  217609        	 LD HL,GOTP+2
  094E  71            	 LD (HL),C
  094F  23            	 INC HL
  0950  70            	 LD (HL),B
  0951  D9            	 EXX
  0952  CDAC0B        	 CALL I2345C
  0955  CD2A25        	 CALL GRPUT2
  0958                	TV2EX1:
  0958  210000        	 LD HL,0000		;ライディーンの画像
  095B  CDC823        	 CALL OPNG2
  095E                	TV2EX2:
  095E  210000        	 LD HL,0000;TV2MS
  0961                	TV2EX3:
  0961  01FF00        	 LD BC,00FFH;07FFH
  0964  CDC719        	 CALL MSOBR
  0967  3E0A          	 LD A,0AH
  0969  CD2117        	 CALL FLASHN
  096C  21610B        	 LD HL,TV2MS2
  096F  0E06          	 LD C,6
  0971  CD8D19        	 CALL MSOBP
  0974                	GOTP:			;LV 2 UP
  0974  AF            	 XOR A
  0975  320000        	 LD (0000H),A
  0978  21670B        	 LD HL,I345M3
  097B  0E18          	 LD C,24
  097D  CD8919        	 CALL MSOB
  0980  212523        	 LD HL,EXPCT
  0983  3A5A62        	 LD A,(LV)
  0986  110200        	 LD DE,2
  0989  CD3221        	 CALL XSAN
  098C  5E            	 LD E,(HL)
  098D  23            	 INC HL
  098E  56            	 LD D,(HL)
  098F  EB            	 EX DE,HL
  0990  227862        	 LD (EXP),HL
  0993  CD6422        	 CALL EXPC
  0996  CD2C25        	 CALL GRPUT1
  0999  C9            	 RET
  099A                	TV2MS:
  099A  D6B8BFDEDCDAC9	 DB "ﾖｸｿﾞﾜﾚ","ﾉﾌｳｲﾝｦ","ﾄｲﾃｸﾚﾀ",0F9H
  09AD  DCC0BCCA2020C1	 DB "ﾜﾀｼﾊ  ","ﾁｶﾗﾉｶﾐ","ｱｼｭﾗｽ ",0F9H
  09C0  C5C6D3C9B6B6DE	 DB "ﾅﾆﾓﾉｶｶ","ﾞｺﾉｸﾆﾉ","ｶﾐｶﾞﾐｦ","ﾌｳｲﾝｼ､",0F9H
  09D9  BEB6B2C92020C1	 DB "ｾｶｲﾉ  ","ﾁｮｳﾜｦ ","ﾐﾀﾞｼﾀ ",0F9H
  09EC  B9DEDDB2DDCABE	 DB "ｹﾞﾝｲﾝﾊ","ｾﾝﾈﾝﾏｴ","ﾆｱﾙ   ",0F9H
  09FF  BFDAA6BCAFC0C4	 DB "ｿﾚｦｼｯﾀ","ﾄｷ､ﾔﾂｦ","ﾀｵｾﾙﾀﾞ","ﾛｳ    ",0F9H
  0A18                	TV3MS:
  0A18  B1DABDD6A420B1	 DB "ｱﾚｽﾖ､ ","ｱﾘｶﾞﾄｳ",0F9H
  0A25  DCC0BCCA2020BA	 DB "ﾜﾀｼﾊ  ","ｺｺﾛﾉｶﾐ","ﾏﾃｨﾅ  ",0F9H
  0A38  B6DAC9BCAEB3C0	 DB "ｶﾚﾉｼｮｳ","ﾀｲﾊﾜﾀｼ","ﾀﾁﾆﾓ  ","ﾜｶﾗﾅｲ ",0F9H
  0A51  B1DABDA4B6C2C3	 DB "ｱﾚｽ､ｶﾂ","ﾃﾉﾕｳｼｬ","ﾆｱｳﾉﾀﾞ",0F9H
  0A64  C4DEB3D4D720B6	 DB "ﾄﾞｳﾔﾗ ","ｶﾚﾊｷﾐﾆ",0F9H
  0A71  C0B2BEC2C520BA	 DB "ﾀｲｾﾂﾅ ","ｺﾄｦﾊﾅｼ","ﾀｲﾗｼｲ ",0F9H
  0A84  C1C5D0C6BAC9BC	 DB "ﾁﾅﾐﾆｺﾉ","ｼﾝﾃﾞﾝﾊ","15ｶｲｱﾙ","ｶﾞﾝﾊﾞﾚ",0F9H
  0A9D                	TV5MS:
  0A9D  CCB3B2DDA620C4	 DB "ﾌｳｲﾝｦ ","ﾄｲﾃｸﾚﾃ","ｱﾘｶﾞﾄｳ",0F9H
  0AB0  DCC0BCCA2020B2	 DB "ﾜﾀｼﾊ  ","ｲﾉﾁﾉｶﾐ","ｱﾅﾝ   ",0F9H
  0AC3  C5C6D3C9B6C9C2	 DB "ﾅﾆﾓﾉｶﾉ","ﾂﾖｲｲｼｶ","ﾞﾊﾀﾗｲﾃ",0F9H
  0AD6  CCC0C0CBDE20BE	 DB "ﾌﾀﾀﾋﾞ ","ｾﾝｴﾝﾏｴ","ﾉﾃﾞｷｺﾞ","ﾄｶﾞ､  ",0F9H
  0AEF  B8D8B6B4BBDAD6	 DB "ｸﾘｶｴｻﾚ","ﾖｳﾄｼﾃ ","ｲﾏｽ   ",0F9H
  0B02  BFC9C4B7C920B7	 DB "ｿﾉﾄｷﾉ ","ｷｵｸﾓ ､",0F9H
  0B0F  BFC9D3C9C620CC	 DB "ｿﾉﾓﾉﾆ ","ﾌｳｲﾝｻﾚ","ﾀﾖｳﾃﾞｽ",0F9H
  0B22  BAC9BCDDC3DEDD	 DB "ｺﾉｼﾝﾃﾞ","ﾝﾉﾄﾞｺｶ","ﾆｺﾉｸﾆﾉ",0F9H
  0B35  DAB7BCA6BCD9BC	 DB "ﾚｷｼｦｼﾙ","ｼﾀﾎﾝｶﾞ","ｱﾙﾊｽﾞ ",0F9H
  0B48  BDCDDEC3C3C6BC	 DB "ｽﾍﾞﾃﾃﾆ","ｼﾀﾄｷ､ﾅ","ｿﾞﾊﾄｹﾙ","ﾃﾞｼｮｳ ",0F9H
  0B61                	TV2MS2:
  0B61  B6D020202020  	 DB "ｶﾐ    "
  0B67                	I345M3:
  0B67  C9CCB3B2DD20B6	 DB "ﾉﾌｳｲﾝ ","ｶﾞﾄｹﾃ､","ｱﾚｽﾊ  ","ﾂﾖｸﾅｯﾀ",0F9H
  0B80                	TV3:						;ｺｺﾛﾉｵｰﾌﾞ
  0B80  210333        	 LD HL,KOKORG		;EX1
  0B83  11180A        	 LD DE,TV3MS		;EX2
  0B86  3E07          	 LD A,07		;EX3	MS LOOP
  0B88  D9            	 EXX
  0B89  01210A        	 LD BC,0A21H		;B=FL C=FLAG
  0B8C  110001        	 LD DE,0100H		;D=X E=Y
  0B8F  C34009        	 JP TV2LJ
  0B92                	TV4:;ﾋｶﾘﾉﾀﾏ
                      	 ;;;;;;;;;;;;;;;;;;;;;;;;;;;;;;;;;;;;;;;;;;;;;;;;;;;;;;;;;;;;;;;;;;;;;;;;;;;;;;;;;;;;;;;;;;;;;;;;;;;;;;;;
  0B92                	TV5:						;ｲﾉﾁﾉｵｰﾌﾞ
  0B92  21BB32        	 LD HL,HARTG		;EX1
  0B95  119D0A        	 LD DE,TV5MS		;EX2
  0B98  3E0A          	 LD A,0AH		;EX3	MS LOOP
  0B9A  D9            	 EXX
  0B9B  011206        	 LD BC,0612H		;B=FL C=FLAG
  0B9E  110506        	 LD DE,0605H		;D=X E=Y
  0BA1  C34009        	 JP TV2LJ
  0BA4                	TV5L:
  0BA4  21D80B        	 LD HL,I2345M
  0BA7  0E12          	 LD C,18
  0BA9  C31009        	 JP TVEND+5
  0BAC                	I2345C:
  0BAC  DDE1          	 POP IX
  0BAE  3A7362        	 LD A,(FL)
  0BB1  2A7462        	 LD HL,(X)
  0BB4  B8            	 CP B
  0BB5  20ED          	 JR NZ,TV5L
  0BB7  7D            	 LD A,L		;X
  0BB8  BA            	 CP D
  0BB9  20E9          	 JR NZ,TV5L
  0BBB  7C            	 LD A,H		;Y
  0BBC  BB            	 CP E
  0BBD  20E5          	 JR NZ,TV5L
  0BBF  DDE5          	 PUSH IX
  0BC1  215663        	 LD HL,FLAG
  0BC4  0600          	 LD B,0
  0BC6  09            	 ADD HL,BC
  0BC7  CBFE          	 SET 7,(HL)
  0BC9  3E07          	 LD A,7
  0BCB  CD1E17        	 CALL FLASH
  0BCE  21EA0B        	 LD HL,I345M2
  0BD1  01FF02        	 LD BC,02FFH
  0BD4  CDC719        	 CALL MSOBR
  0BD7  C9            	 RET
  0BD8                	I2345M:
  0BD8  C0CFCAB1DCB2CB	 DB "ﾀﾏﾊｱﾜｲ","ﾋｶﾘｦ  ","ﾊｯｼﾃｲﾙ"
  0BEA                	I345M2:
  0BEA  C0CFB6D72020CA	 DB "ﾀﾏｶﾗ  ","ﾊｹﾞｼｲ ","ﾋｶﾘｶﾞ ","ﾌｷﾀﾞｼ､",0F9H
  0C03  B5B5B7C52020BD	 DB "ｵｵｷﾅ  ","ｽｶﾞﾀｶﾞ","ｱﾗﾜﾚﾀ!",0F9H
  0C16                	TV6:;	ﾘﾀﾝｽﾄｰﾝ
  0C16  3AA463        	 LD A,(BF)
  0C19  17            	 RLA
  0C1A  DA7111        	 JP C,MGEND
  0C1D  3A6563        	 LD A,(FLAG+0FH)	;INPUT
  0C20  B7            	 OR A
  0C21  2017          	 JR NZ,RETJMP
  0C23  3A7362        	 LD A,(FL)
  0C26  326563        	 LD (FLAG+0FH),A
  0C29  2A7462        	 LD HL,(X)
  0C2C  55            	 LD D,L
  0C2D  5C            	 LD E,H
  0C2E  EB            	 EX DE,HL
  0C2F  223B0C        	 LD (RETJMP+1),HL
  0C32  214A0C        	 LD HL,TV6M1
  0C35  0E12          	 LD C,18
  0C37  C31009        	 JP TVEND+5
  0C3A                	RETJMP:
  0C3A  110000        	 LD DE,0	;INPUT
  0C3D  3A6563        	 LD A,(FLAG+0FH)
  0C40  327362        	 LD (FL),A
  0C43  AF            	 XOR A
  0C44  326563        	 LD (FLAG+0FH),A
  0C47  C32C5F        	 JP WARPSL
  0C4A                	TV6M1:
  0C4A  B2CFC9202020CA	 DB "ｲﾏﾉ   ","ﾊﾞｼｮｦ ","ｷｵｸｼﾀ!"
  0C5C                	TV7:;	ｷﾞﾝﾉｶﾀﾏﾘ
  0C5C  C30B09        	 JP TVEND
  0C5F                	TV8:;	ﾌｳｲﾝﾉｶｷﾞ
  0C5F  18FB          	 JR TV7
  0C61                	TV9:;	ｱﾐｭﾚｯﾄ
  0C61  118D63        	 ld DE,flag+37h
  0C64  3A7362        	 ld A,(FL)
  0C67  FE0F          	 cp 15
  0C69  20F1          	 jr nz,TV7
  0C6B  2A7462        	 ld HL,(X)
  0C6E  3E07          	 ld A,7
  0C70  BD            	 cp L
  0C71  20E9          	 jr nz,TV7
  0C73  BC            	 cp H
  0C74  2806          	 jr z,TV9b
  0C76  AF            	 xor A
  0C77  BE            	 cp (HL)
  0C78  20E2          	 jr nz,TV7
  0C7A  1801          	 jr TV9a
  0C7C                	TV9b:
  0C7C  13            	 inc DE
  0C7D                	TV9a
  0C7D  3E80          	 ld A,80h
  0C7F  12            	 ld (DE),A
  0C80  AF            	 XOR A
  0C81  02            	 LD (BC),A
  0C82  3E03          	 ld A,3
  0C84  CD1E17        	 call flash
  0C87  21AD0C        	 ld HL,TV9m
  0C8A  0E18          	 ld C,24
  0C8C  CD8919        	 call MSOB
  0C8F  218D63        	 ld HL,flag+37h
  0C92  AF            	 xor A
  0C93  BE            	 cp (HL)
  0C94  2813          	 jr z,TV9d
  0C96  23            	 inc HL
  0C97  BE            	 cp (HL)
  0C98  280F          	 jr z,TV9d
  0C9A  2B            	 dec HL
  0C9B  2B            	 dec HL
  0C9C  3680          	 ld (HL),80h
  0C9E  CD5D24        	 call BEPBKC
  0CA1  21C34C        	 ld HL,IV18M+24
  0CA4  0E12          	 ld C,18
  0CA6  CD8919        	 call MSOB
  0CA9                	TV9d:
  0CA9  CD2C25        	 CALL GRPUT1
  0CAC  C9            	 RET
  0CAD                	TV9m:
  0CAD  B1D0ADDAAFC4CA	 db "ｱﾐｭﾚｯﾄ","ﾊﾒｶﾞﾐｿ","ﾞｳﾉﾅｶﾆ","ｽｲｺﾏﾚﾀ"
  0CC5                	TVA:;	ﾌｧﾙﾉｼｮ
  0CC5  210E0D        	 LD HL,FALBOK
  0CC8                	BOOKL:
  0CC8  0604          	 LD B,4
  0CCA  CDC719        	 CALL MSOBR
  0CCD  C31409        	 JP TVEND+9
  0CD0                	TVB:;	ｳｨﾙﾉｼｮ
  0CD0  21600D        	 LD HL,WILBOK
  0CD3  18F3          	 JR BOOKL
  0CD5                	TVC:;	ﾏﾎｳﾉﾗﾝﾌﾟ
  0CD5  3A9463        	 LD A,(DZF)
  0CD8  17            	 RLA
  0CD9  3081          	 JR NC,TV7
  0CDB  AF            	 XOR A
  0CDC  02            	 LD (BC),A
  0CDD  3E05          	 LD A,5
  0CDF  CD1E17        	 CALL FLASH
  0CE2  21F20C        	 LD HL,TVCM
  0CE5  0E0F          	 LD C,15
  0CE7  CD4B19        	 CALL MSO2
  0CEA  3E80          	 LD A,80H
  0CEC  328063        	 LD (FLAG+2AH),A
  0CEF  C31409        	 JP TVEND+9
  0CF2                	TVCM:
  0CF2  B6CDDEC62020D7	 DB "ｶﾍﾞﾆ  ","ﾗﾝﾌﾟｦ ","ｶｹﾀ"
  0D01                	TVD:;	ﾊｳﾚﾝﾉｼｮ
  0D01  21AC0D        	 LD HL,kngBOK
  0D04  18C2          	 JR BOOKL
  0D06                	TVE:;	ﾕｳｼｬﾉｼｮ
  0D06  210A0E        	 LD HL,hirBOK
  0D09  18BD          	 JR BOOKL
  0D0B                	TVF:;ｺﾝﾊﾟｽ
  0D0B  C35C0C        	 Jp TV7
  0D0E                	FALBOK:
  0D0E  BEB2BCDEACB8C5	 DB "ｾｲｼﾞｬｸ","ﾅﾋﾋﾞﾆ ","ﾄﾂｾﾞﾝ ",0F9H
  0D21  CAB9DEBCB220CB	 DB "ﾊｹﾞｼｲ ","ﾋｶﾘｶﾞ ","ｼﾝﾃﾞﾝﾆ","ﾌﾘｿｿｷﾞ",0F9H
  0D3A  BFC9C5B6B6D7CF	 DB "ｿﾉﾅｶｶﾗ","ﾏﾓﾉｶﾞ ","ｱﾗﾜﾚﾀ ",0F9H
  0D4D  CAB3DADDBAB8CA	 DB "ﾊｳﾚﾝｺｸ","ﾊｷｮｳﾌﾆ","ﾂﾂﾏﾚﾀ ",0F9H
  0D60                	WILBOK:
  0D60  B5B3BBCFCA20BC	 DB "ｵｳｻﾏﾊ ","ｼﾝﾃﾞﾝﾆ","ｾﾝｼｦ  ","ｵｸｯﾀｶﾞ",0F9H
  0D79  CFAFC0B8CA20B6	 DB "ﾏｯﾀｸﾊ ","ｶﾞﾀﾀﾅｲ",0F9H
  0D86  CFD3C9C9D1DACA	 DB "ﾏﾓﾉﾉﾑﾚ","ﾊｶｽﾞｦ ","ﾌﾔｼ､  ",0F9H
  0D99  BEB6B2B6DE20CA	 DB "ｾｶｲｶﾞ ","ﾊﾒﾂﾉｷｷ","ﾆﾌﾝｼﾀ ",0F9H
  0DAC                	kngbok:
  0DAC  DCC0BCCA2020CF	 db "ﾜﾀｼﾊ  ","ﾏﾓﾉｦﾖﾝ","ﾃﾞｲﾙﾓﾉ","ｶﾞｲﾙﾄ ","ｻﾄｯﾀ  ",0f9h
  0DCB  BAC9B8C6C9C0D0	 db "ｺﾉｸﾆﾉﾀ","ﾐﾉｼﾜｻﾞ","ﾃﾞｱﾙﾄﾓ","ﾊﾝﾒｲｼﾀ",0f9h
  0DE4  D5B3BCACC620BE	 db "ﾕｳｼｬﾆ ","ｾｲﾅﾙｹﾝ","ｦﾂｶﾜｾﾃ",0f9h
  0DF7  B8DBCFB8C920C4	 db "ｸﾛﾏｸﾉ ","ﾄｳﾊﾞﾂｦ","ｲﾗｲｼﾀ ",0f9h
  0E0A                	hirbok:
  0E0A  B1BBCBB6DEC9CE	 db "ｱｻﾋｶﾞﾉ","ﾎﾞﾛｳｳﾄ","ｽﾙｺﾛ､ ",0f9h
  0E1D  D6B3D4B8C3B7A6	 db "ﾖｳﾔｸﾃｷ","ｦｳﾂｺﾄ ","ｶﾞﾃﾞｷﾀ",0f9h
  0E30  BCB6BCD4C2C9BC	 db "ｼｶｼﾔﾂﾉ","ｼﾞｬｱｸﾅ","ﾀﾏｼｲｦ ","ｹｽｺﾄﾊﾃ","ﾞｷﾅｶｯﾀ",0f9h
  0E4F  BAC9CCB3B2DDCA	 db "ｺﾉﾌｳｲﾝ","ﾊﾓｯﾃｾﾝ","ﾈﾝﾎﾄﾞ･","ﾑﾈﾝ!  ",0f9h
                      	
  0E68                	AR1:
  0E68  1E05          	 LD E,5
  0E6A                	DFEX:
  0E6A  216362        	 LD HL,EA
  0E6D  1803          	 JR DFL1+3
  0E6F                	DFL1:
  0E6F  216262        	 LD HL,ET
  0E72  3A6562        	 LD A,(EDP)
  0E75  83            	 ADD A,E
  0E76  5F            	 LD E,A		;E=上乗せしたやつ
  0E77  7E            	 LD A,(HL)	;A=装備してるNO.
  0E78  3D            	 DEC A
  0E79  E5            	 PUSH HL
  0E7A  211D0F        	 LD HL,EQDP+6
  0E7D  CB6F          	 BIT 5,A
  0E7F  C49C0E        	 CALL NZ,SHIEX
  0E82  E60F          	 AND 0FH
  0E84  85            	 ADD A,L
  0E85  3001          	 JR NC,DFL2
  0E87  24            	 INC H
  0E88                	DFL2:
  0E88  6F            	 LD L,A
  0E89  7E            	 LD A,(HL)
  0E8A  57            	 LD D,A
  0E8B  7B            	 LD A,E
  0E8C  92            	 SUB D		;上乗せ-今の装備の分
  0E8D  326562        	 LD (EDP),A
  0E90  32A263        	 LD (NDP),A
  0E93  0A            	 LD A,(BC)
  0E94  5F            	 LD E,A
  0E95  E1            	 POP HL
  0E96  7E            	 LD A,(HL)
  0E97  02            	 LD (BC),A
  0E98  7B            	 LD A,E
  0E99  77            	 LD (HL),A
  0E9A  1846          	 JR EQMS2
  0E9C                	SHIEX:
  0E9C  21170F        	 LD HL,EQDP
  0E9F  C9            	 RET
  0EA0                	AR2:
  0EA0  1E0F          	 LD E,15
  0EA2  18C6          	 JR DFEX
  0EA4                	AR3:
  0EA4  1E23          	 LD E,35
  0EA6  18C2          	 JR DFEX
  0EA8                	AR4:
  0EA8  1E32          	 LD E,50
  0EAA  18BE          	 JR DFEX
  0EAC                	AR5:
  0EAC  1E62          	 LD E,98
  0EAE  18BA          	 JR DFEX
  0EB0                	AR6:
  0EB0  1E00          	 LD E,0
  0EB2  18B6          	 JR DFEX
  0EB4                	SH1:
  0EB4  1E05          	 LD E,5
  0EB6  18B7          	 JR DFL1
  0EB8                	SH2:
  0EB8  1E19          	 LD E,25
  0EBA  18B3          	 JR DFL1
  0EBC                	SH3:
  0EBC  1E23          	 LD E,35
  0EBE  18AF          	 JR DFL1
  0EC0                	SH4:
  0EC0  1E3C          	 LD E,60
  0EC2  18AB          	 JR DFL1
  0EC4                	SH5:
  0EC4  1E46          	 LD E,70
  0EC6  18A7          	 JR DFL1
  0EC8                	SH6:
  0EC8  1E00          	 LD E,0
  0ECA  18A3          	 JR DFL1
  0ECC                	SW1:
  0ECC  1E0A          	 LD E,10
  0ECE                	SWEX:
  0ECE  3A5F62        	 LD A,(AP)
  0ED1  83            	 ADD A,E
  0ED2  326462        	 LD (EAP),A
  0ED5  32A163        	 LD (NAP),A
  0ED8  0A            	 LD A,(BC)
  0ED9  5F            	 LD E,A
  0EDA  3A6162        	 LD A,(ES)
  0EDD  02            	 LD (BC),A
  0EDE  7B            	 LD A,E
  0EDF  326162        	 LD (ES),A
  0EE2                	EQMS2:
  0EE2  21530F        	 LD HL,EQMES
  0EE5  0E06          	 LD C,6
  0EE7  CD2F19        	 CALL MSO
  0EEA  E1            	 POP HL
  0EEB  3AF700        	 LD A,(0F7H)
  0EEE  FE45          	 CP 45H
  0EF0  281F          	 JR Z,BATACB
  0EF2  E5            	 PUSH HL
  0EF3  C30A0F        	 JP ITMEND
  0EF6                	SW2:
  0EF6  1E23          	 LD E,35
  0EF8  18D4          	 JR SWEX
  0EFA                	SW3:
  0EFA  1E3C          	 LD E,60
  0EFC  18D0          	 JR SWEX
  0EFE                	SW4:
  0EFE  1E69          	 LD E,105
  0F00  18CC          	 JR SWEX
  0F02                	SW5:
  0F02  1E8B          	 LD E,139
  0F04  18C8          	 JR SWEX
  0F06                	SW6:
  0F06  1E00          	 LD E,0
  0F08  18C4          	 JR SWEX
  0F0A                	ITMEND:
  0F0A  CD2C25        	 CALL GRPUT1
  0F0D  3E02          	 LD A,2		;STATUS
  0F0F  37            	 SCF		;BATTLE
  0F10  C9            	 RET
  0F11                	BATACB:
  0F11  CD2924        	 CALL BTACT1
  0F14  C31F1C        	 JP BATACK
  0F17                	EQDP:
  0F17  0519233C4600  	 DB 5,25,35,60,70,0
  0F1D  050F23326200  	 DB 5,15,35,50,98,0
  0F23                	HPUPMS:
  0F23  C0B2D8AEB820B6	 DB "ﾀｲﾘｮｸ ","ｶｲﾌｸ! "
  0F2F                	HPMPUM:
  0F2F  BEDEDD202020B6	 DB "ｾﾞﾝ   ","ｶｲﾌｸ!!"
  0F3B                	MPUPMS:
  0F3B  CFD8AEB82020B6	 DB "ﾏﾘｮｸ  ","ｶｲﾌｸ! "
  0F47                	STUPMS:
  0F47  BDC3B0C0BD20B6	 DB "ｽﾃｰﾀｽ ","ｶｲﾌｸ! "
  0F53                	EQMES:
  0F53  BFB3CBDE2120  	 DB "ｿｳﾋﾞ! "
                      	
  0F59                	MANSTS:
  0F59  211B10        	 LD HL,STRETP
  0F5C  E5            	 PUSH HL
  0F5D  B7            	 OR A
  0F5E                	BTCMST:
  0F5E  F5            	 PUSH AF
  0F5F  CD511A        	 CALL GRO
  0F62  F1            	 POP AF
  0F63  3803          	 JR C,MANST1
  0F65  CDF202        	 CALL MPP+4
  0F68                	MANST1:
  0F68  2A5B62        	 LD HL,(HP)
  0F6B  2600          	 LD H,0
  0F6D  CDD619        	 CALL ASCN
  0F70  21D319        	 LD HL,NMEMRY+2
  0F73  113310        	 LD DE,MANSTM+7
  0F76  E5            	 PUSH HL
  0F77  EDA0          	 LDI
  0F79  EDA0          	 LDI
  0F7B  EDA0          	 LDI
  0F7D  13            	 INC DE
  0F7E  D5            	 PUSH DE
  0F7F  2A5C62        	 LD HL,(MHP)
  0F82  2600          	 LD H,0
  0F84  CD8010        	 CALL MANSTC
  0F87  D1            	 POP DE
  0F88  210600        	 LD HL,6
  0F8B  19            	 ADD HL,DE
  0F8C  EB            	 EX DE,HL
  0F8D  D5            	 PUSH DE
  0F8E  2A5D62        	 LD HL,(MP)
  0F91  2600          	 LD H,0
  0F93  CD8010        	 CALL MANSTC
  0F96  2A5E62        	 LD HL,(MMP)
  0F99  2600          	 LD H,0
  0F9B  CD8010        	 CALL MANSTC
  0F9E  D1            	 POP DE
  0F9F  E1            	 POP HL
  0FA0  21D119        	 LD HL,NMEMRY
  0FA3  E5            	 PUSH HL
  0FA4  13            	 INC DE
  0FA5  D5            	 PUSH DE
  0FA6  2A7662        	 LD HL,(G)
  0FA9  CD8010        	 CALL MANSTC
  0FAC  D1            	 POP DE
  0FAD  1B            	 DEC DE
  0FAE  EDA0          	 LDI
  0FB0  EDA0          	 LDI
  0FB2  13            	 INC DE
  0FB3  13            	 INC DE
  0FB4  D5            	 PUSH DE
  0FB5  2A7862        	 LD HL,(EXP)
  0FB8  CD8010        	 CALL MANSTC
  0FBB  D1            	 POP DE
  0FBC  1B            	 DEC DE
  0FBD  EDA0          	 LDI
  0FBF  EDA0          	 LDI
  0FC1  E1            	 POP HL
  0FC2  2A5A62        	 LD HL,(LV)
  0FC5  2600          	 LD H,0
  0FC7  CDD619        	 CALL ASCN
  0FCA  115910        	 LD DE,MANSTM+45
  0FCD  21D319        	 LD HL,NMEMRY+2
  0FD0  E5            	 PUSH HL
  0FD1  EDA0          	 LDI
  0FD3  EDA0          	 LDI
  0FD5  EDA0          	 LDI
  0FD7  13            	 INC DE
  0FD8  13            	 INC DE
  0FD9  13            	 INC DE
  0FDA  D5            	 PUSH DE
  0FDB  2A6462        	 LD HL,(EAP)
  0FDE  2600          	 LD H,0
  0FE0  CD8010        	 CALL MANSTC
  0FE3  D1            	 POP DE
  0FE4  13            	 INC DE
  0FE5  13            	 INC DE
  0FE6  D5            	 PUSH DE
  0FE7  2A6562        	 LD HL,(EDP)
  0FEA  2600          	 LD H,0
  0FEC  CD8010        	 CALL MANSTC
  0FEF  E1            	 POP HL
  0FF0  E1            	 POP HL
  0FF1  216E10        	 LD HL,MANSTM+66
  0FF4  3A6662        	 LD A,(ST)
  0FF7  110600        	 LD DE,6
  0FFA  CD3221        	 CALL XSAN
  0FFD  116810        	 LD DE,MANSTM+60
  1000  010600        	 LD BC,6
  1003  EDB0          	 LDIR
  1005  0606          	 LD B,6
  1007  1600          	 LD D,0
  1009  212C10        	 LD HL,MANSTM
  100C                	STP1L:
  100C  C5            	 PUSH BC
  100D  0607          	 LD B,7
  100F  1E08          	 LD E,8
  1011  CDF1BF        	 CALL 0BFF1H
  1014  23            	 INC HL
  1015  14            	 INC D
  1016  C1            	 POP BC
  1017  10F3          	 DJNZ STP1L
  1019  37            	 SCF
  101A  C9            	 RET
  101B                	STRETP:
  101B  215610        	 LD HL,MANSTM+42
  101E  0E18          	 LD C,24
  1020  CD3319        	 CALL MSOP
  1023  CDFDBC        	 CALL 48381
  1026  CD6B1A        	 CALL GRO2
  1029  C37613        	 JP DATASV-8;JR MRET
                      	
  102C                	MANSTM:
  102C  48503A20202020	 DB "HP:    "
  1033  2020202F202020	 DB "   /   "
  103A  4D503A20202020	 DB "MP:    "
  1041  2020202F202020	 DB "   /   "
  1048  473A2020202020	 DB "G:     "
  104F  453A2020202020	 DB "E:     "
                      	;+42
  1056  4C563A202020  	 DB "LV:   "
  105C  41503A202020  	 DB "AP:   "
  1062  44503A202020  	 DB "DP:   "
  1068  202020202020  	 DB "      "
                      	;+70
  106E  BEB2BCDEAEB3C4	 DB "ｾｲｼﾞｮｳ","ﾄﾞｸ   ","ﾔﾊﾞｲ! "
  1080                	MANSTC:
  1080  D9            	 EXX
  1081  D1            	 POP DE
  1082  D9            	 EXX
  1083  CDD619        	 CALL ASCN
  1086  D1            	 POP DE
  1087  E1            	 POP HL
  1088  E5            	 PUSH HL
  1089  EDA0          	 LDI
  108B  EDA0          	 LDI
  108D  EDA0          	 LDI
  108F  13            	 INC DE
  1090  D5            	 PUSH DE
  1091  D9            	 EXX
  1092  D5            	 PUSH DE
  1093  D9            	 EXX
  1094  C9            	 RET
                      	
                      	; DB " ﾎﾞｳ ";DAM	LV 0	MP:3
                      	; DB " ﾚｽﾀ ";HPUP	LV 5	MP:4
                      	; DB " ﾊﾞﾙﾑ";DPUP	LV 10	MP:8
                      	; DB " ﾀﾞｽﾀ";APUP ｲﾁｼﾞ	LV 15	MP:15
                      	; DB " ﾚｽﾄｱ";HPUPP	LV 20	MP:10
                      	; DB " LOST";KILL ZAKI	LV 25	MP:20
                      	; DB " ｽﾙｰ ";FLDOWN	LV 30	MP:0
  1095                	MANMGB:	;BATTLE CALL ｻﾚﾙ
  1095  213B11        	 LD HL,BTMAGE
  1098  E5            	 PUSH HL
  1099  1808          	 JR MANML1
  109B                	MANMAG:
  109B  217613        	 LD HL,DATASV-8
  109E  E5            	 PUSH HL
  109F  215611        	 LD HL,MAGAD
  10A2  E5            	 PUSH HL
  10A3                	MANML1:
  10A3  CD2F2D        	 CALL FREECL
  10A6  21682F        	 LD HL,MAGICL
  10A9  11DB2C        	 LD DE,FREE2
  10AC  3A7A62        	 LD A,(MG)
  10AF                	MAGRP1:
  10AF  1F            	 RRA
  10B0  384F          	 JR C,MAGP1
  10B2  212A2E        	 LD HL,DATMS1+42
  10B5  11052D        	 LD DE,FREE2+42
  10B8  010600        	 LD BC,6
  10BB  EDB0          	 LDIR
  10BD  3A7A62        	 LD A,(MG)		;
  10C0  CB77          	 BIT 6,A		;
  10C2  280B          	 JR Z,MAGLB1		;
  10C4  21862F        	 LD HL,MAGICL+30	;
  10C7  11FF2C        	 LD DE,FREE2+36		;
  10CA  010500        	 LD BC,5		;
  10CD  EDB0          	 LDIR			;
  10CF                	MAGLB1:			;
  10CF  AF            	 XOR A
  10D0  32FF00        	 LD (0FFH),A
  10D3  3C            	 INC A
  10D4  32F300        	 LD (0F3H),A
  10D7  21DB2C        	 LD HL,FREE2
  10DA                	PAGECE:
  10DA  0E18          	 LD C,24
  10DC  CD3319        	 CALL MSOP
  10DF  CD8118        	 CALL CURP
  10E2                	MGCURS:
  10E2  CDFDBC        	 CALL 48381;LOOP
  10E5  CD4E24        	 CALL BEPMSC
  10E8  FE21          	 CP 21H
  10EA  281F          	 JR Z,MGPAGE
  10EC  FE22          	 CP 22H
  10EE  281B          	 JR Z,MGPAGE
  10F0  FE28          	 CP 28H
  10F2  282D          	 JR Z,MAGMIS
  10F4  F5            	 PUSH AF
  10F5  CD8E18        	 CALL CURD
  10F8  F1            	 POP AF
  10F9  CD5018        	 CALL CURS
  10FC  CDBA18        	 CALL CUR2
  10FF  18E1          	 JR MGCURS
  1101                	MAGP1:
  1101  F5            	 PUSH AF
  1102  010500        	 LD BC,5
  1105  EDB0          	 LDIR
  1107  13            	 INC DE
  1108  F1            	 POP AF
  1109  18A4          	 JR MAGRP1
  110B                	MGPAGE:
  110B  3AFF00        	 LD A,(0FFH)
  110E  2F            	 CPL
  110F  E601          	 AND 00000001B
  1111  32FF00        	 LD (0FFH),A
  1114  E21C11        	 JP PO,MGPA
  1117  21DB2C        	 LD HL,FREE2
  111A  18BE          	 JR PAGECE
  111C                	MGPA:
  111C  21F32C        	 LD HL,FREE2+24
  111F  18B9          	 JR PAGECE
  1121                	MAGMIS:
  1121  3AF300        	 LD A,(0F3H)
  1124  4F            	 LD C,A
  1125  3AFF00        	 LD A,(0FFH)
  1128  B7            	 OR A
  1129  2802          	 JR Z,MAGM1
  112B  3E04          	 LD A,4
  112D                	MAGM1:
  112D  81            	 ADD A,C
  112E  47            	 LD B,A
  112F  4F            	 LD C,A
  1130  3A7A62        	 LD A,(MG)
  1133                	MAGML1:
  1133  1F            	 RRA
  1134  10FD          	 DJNZ MAGML1
  1136  79            	 LD A,C
  1137  D8            	 RET C
  1138  F1            	 POP AF
  1139  B7            	 OR A	;BATTLE	NCﾃﾞﾅﾆﾓｼﾅｲ
  113A  C9            	 RET
  113B                	BTMAGE;MANMGB:	;BATTLE
  113B  FE02          	 CP 2
  113D  DA1512        	 JP C,BTBOH
  1140  CAC911        	 JP Z,BTREST
  1143  FE04          	 CP 4
  1145  DA3112        	 JP C,BTBALM
  1148  CA5E12        	 JP Z,BTDAST
  114B  FE06          	 CP 6
  114D  DA7B11        	 JP C,BTRSTE
  1150  CA9E12        	 JP Z,BTLOST
  1153  C3A211        	 JP THRU
  1156                	MAGAD:
  1156  FE02          	 CP 2
  1158  DAF111        	 JP C,BOH
  115B  2872          	 JR Z,REST
  115D  FE04          	 CP 4
  115F  3863          	 JR C,BALM
  1161  285C          	 JR Z,DAST
  1163  FE06          	 CP 6
  1165  381A          	 JR C,RSTE
  1167  2802          	 JR Z,LOST
  1169  1837          	 JR THRU
  116B                	LOST:;SATD
  116B  21812F        	 LD HL,MAGICL+25
  116E  CDB212        	 CALL MGMC
  1171                	MGEND:
  1171  218B2F        	 LD HL,YAMEYO
  1174  0E18          	 LD C,24
  1176  CD8919        	 CALL MSOB
  1179  37            	 SCF
  117A  C9            	 RET
  117B                	BTRSTE:
                      	; POP HL
  117B  215E0F        	 LD HL,BTCMST
  117E  E5            	 PUSH HL
  117F  1805          	 JR RSTE+5
  1181                	RSTE:
  1181  E1            	 POP HL
  1182  21590F        	 LD HL,MANSTS
  1185  E5            	 PUSH HL
  1186  217C2F        	 LD HL,MAGICL+20
  1189  CDB212        	 CALL MGMC
  118C  3E0A          	 LD A,10
  118E  CDCD12        	 CALL MPCH
  1191  D8            	 RET C
  1192  3A5C62        	 LD A,(MHP)
  1195                	RESTL2:
  1195  325B62        	 LD (HP),A
  1198  21230F        	 LD HL,HPUPMS
  119B  0E0C          	 LD C,12
  119D  CD8919        	 CALL MSOB
                      	; POP HL
                      	; LD (0D0H),HL
                      	; POP HL
                      	; LD (0D2H),HL
  11A0  37            	 SCF
  11A1  C9            	 RET	;JP MANSTS OR JP BTCMST
  11A2                	THRU:
  11A2  21862F        	 LD HL,MAGICL+30
  11A5  3A7362        	 LD A,(FL)
  11A8                	MGTHRU:
  11A8  CDB212        	 CALL MGMC
  11AB  3D            	 DEC A
  11AC  28C3          	 JR Z,MGEND
  11AE  3AA463        	 LD A,(BF)
  11B1  17            	 RLA
  11B2  38BD          	 JR C,MGEND;THRUL
  11B4  210613        	 LD HL,MGIM1
  11B7  0E18          	 LD C,24
  11B9  CD8919        	 CALL MSOB
  11BC  C3A25F        	 JP FLDNK
                      	;THRUL:
                      	; LD HL,YAMEYO
                      	; LD C,24
                      	; CALL MSOB
                      	; JP TTURN	;JP C,
  11BF                	DAST:
  11BF  21772F        	 LD HL,MAGICL+15
  11C2  18AA          	 JR LOST+3
  11C4                	BALM:
  11C4  21722F        	 LD HL,MAGICL+10
  11C7  18A5          	 JR LOST+3
  11C9                	BTREST:
                      	; POP HL
  11C9  215E0F        	 LD HL,BTCMST
  11CC  E5            	 PUSH HL
  11CD  1805          	 JR REST+5
  11CF                	REST:
  11CF  E1            	 POP HL
  11D0  21590F        	 LD HL,MANSTS
  11D3  E5            	 PUSH HL
  11D4  216D2F        	 LD HL,MAGICL+5
  11D7  CDB212        	 CALL MGMC
  11DA  3E04          	 LD A,4
  11DC  CDCD12        	 CALL MPCH
  11DF  D8            	 RET C
  11E0  3A5C62        	 LD A,(MHP)
  11E3  4F            	 LD C,A
  11E4  3A5B62        	 LD A,(HP)
  11E7  C632          	 ADD A,50
  11E9  38A7          	 JR C,RESTL2-3
  11EB  B9            	 CP C
  11EC  3801          	 JR C,RESTL
  11EE  79            	 LD A,C
  11EF                	RESTL:
  11EF  18A4          	 JR RESTL2
  11F1                	BOH:
  11F1  21682F        	 LD HL,MAGICL
  11F4  CDB212        	 CALL MGMC
  11F7  21FD11        	 LD HL,BOHM
  11FA  C37411        	 JP LOST+9
  11FD                	BOHM:
  11FD  A5A5A5BADECEBF	 DB "･･･ｺﾞﾎ","ｿｺﾗｼﾞｭ","ｳﾆﾎｺﾘｶ","ﾞﾏｯﾀ･･"
  1215                	BTBOH:
  1215  0603          	 LD B,3
  1217  0E0E          	 LD C,14		;
  1219  CD8C1B        	 CALL RAND4
  121C  81            	 ADD A,C
  121D  21682F        	 LD HL,MAGICL
  1220                	BTBOHL:
  1220  D1            	 POP DE
  1221  C5            	 PUSH BC
  1222  CDB212        	 CALL MGMC
  1225  08            	 EX AF,AF'
  1226  F1            	 POP AF
  1227  CDCD12        	 CALL MPCH
  122A  DA7F1C        	 JP C,TTURN
  122D  08            	 EX AF,AF'
  122E  C38021        	 JP THPDWN
  1231                	BTBALM:
  1231  21722F        	 LD HL,MAGICL+10
  1234  CDB212        	 CALL MGMC
  1237  3E08          	 LD A,8		;
  1239  08            	 EX AF,AF'
  123A  CD7912        	 CALL BTBDC
  123D  3A6562        	 LD A,(EDP)
  1240  CD8C12        	 CALL BTBDC2
  1243  3002          	 JR NC,BTBLL1
  1245  3EFF          	 LD A,255
  1247                	BTBLL1:
  1247  32A263        	 LD (NDP),A
                      	;JR BTBLDS
  124A                	BTBLDS
  124A  3E01          	 LD A,1
  124C  32A363        	 LD (STF),A
  124F  219312        	 LD HL,BTLOST-11
  1252  0E0B          	 LD C,11
  1254  CD8D19        	 CALL MSOBP
  1257  CD3617        	 CALL TIMBTL
  125A  F1            	 POP AF
  125B  C37F1C        	 JP TTURN
  125E                	BTDAST:
  125E  21772F        	 LD HL,MAGICL+15
  1261  CDB212        	 CALL MGMC
  1264  3E0F          	 LD A,15		;
  1266  08            	 EX AF,AF'
  1267  CD7912        	 CALL BTBDC
  126A  3A6462        	 LD A,(EAP)
  126D  CD8C12        	 CALL BTBDC2
  1270  3002          	 JR NC,BTBLL2
  1272  3EFF          	 LD A,255
  1274                	BTBLL2:
  1274  32A163        	 LD (NAP),A
  1277  18D1          	 JR BTBLDS
  1279                	BTBDC:
  1279  DDE1          	 POP IX
  127B  3AA363        	 LD A,(STF)
  127E  B7            	 OR A
  127F  C27111        	 JP NZ,MGEND
  1282  08            	 EX AF,AF'
  1283  CDCD12        	 CALL MPCH
  1286  DA7F1C        	 JP C,TTURN
  1289  DDE5          	 PUSH IX
  128B  C9            	 RET
  128C                	BTBDC2:
  128C  F5            	 PUSH AF
  128D  CB3F          	 SRL A
  128F  4F            	 LD C,A
  1290  F1            	 POP AF
  1291  81            	 ADD A,C
  1292  C9            	 RET
  1293  BDC3B0C0BD20B1	 DB "ｽﾃｰﾀｽ ","ｱｯﾌﾟ!"
  129E                	BTLOST:
  129E  0614          	 LD B,20
  12A0  CD791B        	 CALL RAND
  12A3  FE08          	 CP 8
  12A5  3803          	 JR C,LOSTL1
  12A7  AF            	 XOR A
  12A8  1802          	 JR LOSTL1+2
  12AA                	LOSTL1:
  12AA  3EFF          	 LD A,255
  12AC  21812F        	 LD HL,MAGICL+25
  12AF  C32012        	 JP BTBOHL
  12B2                	MGMC:
  12B2  F5            	 PUSH AF
  12B3  11F912        	 LD DE,MGM+5
  12B6  010500        	 LD BC,5
  12B9  EDB0          	 LDIR
  12BB  21F412        	 LD HL,MGM
  12BE  0E12          	 LD C,18
  12C0  CD8D19        	 CALL MSOBP
  12C3  3E05          	 LD A,5
  12C5  CD1E17        	 CALL FLASH
  12C8  CD3617        	 CALL TIMBTL
  12CB  F1            	 POP AF
  12CC  C9            	 RET
                      	
                      	;----------MP CHECK------------
                      	
  12CD                	MPCH:;A=USE MP
  12CD  F5            	 PUSH AF
  12CE  CD3A17        	 CALL TIM30
  12D1  F1            	 POP AF
  12D2  47            	 LD B,A
  12D3  3A5D62        	 LD A,(MP)
  12D6  B8            	 CP B
  12D7  3F            	 CCF
  12D8  3005          	 JR NC,MPCHC
  12DA  90            	 SUB B
  12DB  325D62        	 LD (MP),A
  12DE  C9            	 RET
  12DF                	MPCHC:;CY を 信号にする
  12DF  21E912        	 LD HL,MPCHM
  12E2  0E0B          	 LD C,11
  12E4  CD8919        	 CALL MSOB
  12E7  37            	 SCF
  12E8  C9            	 RET
  12E9                	MPCHM:
  12E9  4D50B6DE2020C0	 DB "MPｶﾞ  ","ﾀﾘﾅｲ!"
  12F4                	MGM:
  12F4  B1DABDCA202020	 DB "ｱﾚｽﾊ  ","      ","ｦﾄﾅｴﾀ!"
  1306                	MGIM1:
  1306  B6D7C0DEB6DED5	 DB "ｶﾗﾀﾞｶﾞ","ﾕｶﾆ   ","ｼｽﾞﾝﾃﾞ","ﾕｸ･･･ "
                      	
                      	;---------Iボタン---------
                      	
  131E                	INSP:
  131E  11E62D        	 LD DE,MESWD
  1321  213913        	 LD HL,BLKWI1-6
  1324  010500        	 LD BC,5
  1327  EDB0          	 LDIR
  1329                	INSPL:
  1329  213E13        	 LD HL,BLKWI1-1
  132C  34            	 INC (HL)
  132D  3E10          	 LD A,16
  132F  BE            	 CP (HL)
  1330  280D          	 JR Z,BLKWI1
  1332  3E90          	 LD A,128+16
  1334  BE            	 CP (HL)
  1335  281E          	 JR Z,BLKWI2
  1337  183D          	 JR DATASV-8;JR MRET
  1339  C5C6D3C5B2    	 DB "ﾅﾆﾓﾅｲ"
  133E  00            	 DB 0
  133F                	BLKWI1:
  133F  3600          	 LD (HL),0
  1341  CBFE          	 SET 7,(HL)
  1343  3EA6          	 LD A,0A6H
  1345  0E3C          	 LD C,3CH	;INC A
  1347                	BLWTL:
  1347  322417        	 LD (FLASE1+1),A
  134A  79            	 LD A,C
  134B  322C17        	 LD (FLASE2),A
  134E  3E01          	 LD A,1
  1350  CD1E17        	 CALL FLASH
  1353  1821          	 JR DATASV-8
  1355                	BLKWI2:
  1355  3600          	 LD (HL),0
  1357  3EA7          	 LD A,0A7H
  1359  0E3D          	 LD C,3DH	;DEC A
  135B  18EA          	 JR BLWTL
                      	
                      	;---------Dボタン---------
                      	
  135D                	DATA:
  135D  21002E        	 LD HL,DATMS1
  1360  0E18          	 LD C,24
  1362  CD3319        	 CALL MSOP
  1365                	DATMIN:
  1365  CDD918        	 CALL CURSOL
  1368                	DATMIS:
  1368  3AF300        	 LD A,(0F3H)
  136B  FE02          	 CP 2
  136D  3844          	 JR C,DATAMP
  136F  280D          	 JR Z,DATASV
  1371  FE03          	 CP 3
  1373  CABA01        	 JP Z,LOAD
  1376  3E54          	 LD A,54H
  1378  32F800        	 LD (0F8H),A
  137B  C3AB16        	 JP MRET
  137E                	DATASV:
  137E  012100        	 LD BC,33
  1381  215A62        	 LD HL,LV
  1384  117D62        	 LD DE,SAVE
  1387  EDB0          	 LDIR
  1389  0E40          	 LD C,64
  138B  215663        	 LD HL,FLAG
  138E  119E62        	 LD DE,FSAVE
  1391  EDB0          	 LDIR
  1393  0E78          	 LD C,120
  1395  21512D        	 LD HL,AUTOME
  1398  11DE62        	 LD DE,MSAVE
  139B  EDB0          	 LDIR
  139D  111104        	 LD DE,0411H
  13A0  21AD13        	 LD HL,DATASV+47
  13A3  0606          	 LD B,6
  13A5  CDF1BF        	 CALL 0BFF1H
  13A8  CDFDBC        	 CALL 48381
  13AB  18C9          	 JR DATASV-8
  13AD  BEB0CCDE4F4B  	 DB "ｾｰﾌﾞOK"
  13B3                	DATAMP:
  13B3  3A7362        	 LD A,(FL)
  13B6  3D            	 DEC A
  13B7  110800        	 LD DE,8
  13BA  21512D        	 LD HL,AUTOME
  13BD  CD3221        	 CALL XSAN
  13C0  11D02C        	 LD DE,FREE
  13C3  ED53E800      	 LD (0E8H),DE
  13C7  010800        	 LD BC,8
  13CA  EDB0          	 LDIR
  13CC  3A7362        	 LD A,(FL)
  13CF  3D            	 DEC A
  13D0  211341        	 LD HL,MPD1
  13D3  114000        	 LD DE,64
  13D6  CD3221        	 CALL XSAN
  13D9  010808        	 LD BC,0808H
  13DC  11C828        	 LD DE,GRD2
  13DF                	LOOPM:
  13DF  C5            	 PUSH BC
  13E0  E5            	 PUSH HL
  13E1  D5            	 PUSH DE
  13E2                	DATHL:
  13E2  2AE800        	 LD HL,(0E8H)
  13E5  CB16          	 RL (HL)
  13E7  D21114        	 JP NC,LOOPL
  13EA  D1            	 POP DE
  13EB  E1            	 POP HL
  13EC  E5            	 PUSH HL
  13ED  D5            	 PUSH DE
  13EE  7E            	 LD A,(HL)
  13EF  1F            	 RRA
  13F0  DA1015        	 JP C,MPS1
  13F3                	RETP:
  13F3  1F            	 RRA
  13F4  DA1C15        	 JP C,MPS2
  13F7  1F            	 RRA
  13F8  DA2B15        	 JP C,MPS3
  13FB  1F            	 RRA
  13FC  DA3715        	 JP C,MPS4
  13FF  1F            	 RRA
  1400  DA4115        	 JP C,MPS1D
  1403  1F            	 RRA
  1404  DA4D15        	 JP C,MPS2D
  1407  1F            	 RRA
  1408  DA5A15        	 JP C,MPS3D
  140B  1F            	 RRA
  140C  DA6615        	 JP C,MPS4D
  140F  180E          	 JR LOOPN
  1411                	LOOPL:
  1411  D1            	 POP DE
  1412  D5            	 PUSH DE
  1413  0603          	 LD B,3
  1415  3E2A          	 LD A,2AH
  1417  12            	 LD (DE),A
  1418  13            	 INC DE
  1419  3E15          	 LD A,15H
  141B  12            	 LD (DE),A
  141C  13            	 INC DE
  141D  10F6          	 DJNZ LOOPL+4
  141F                	LOOPN:
  141F  D1            	 POP DE
  1420  13            	 INC DE
  1421  13            	 INC DE
  1422  13            	 INC DE
  1423  13            	 INC DE
  1424  13            	 INC DE
  1425  13            	 INC DE
  1426  E1            	 POP HL
  1427  23            	 INC HL
  1428  C1            	 POP BC
  1429  10B4          	 DJNZ LOOPM
  142B  79            	 LD A,C
  142C  F5            	 PUSH AF
  142D  E5            	 PUSH HL
  142E  2AE800        	 LD HL,(0E8H)
  1431  23            	 INC HL
  1432  22E800        	 LD (0E8H),HL
  1435  21C828        	 LD HL,GRD2
  1438  0630          	 LD B,48
  143A  FE08          	 CP 8
  143C  CA7015        	 JP Z,MPIR1
  143F  FE07          	 CP 7
  1441  CA8D15        	 JP Z,MPIR2
  1444  FE06          	 CP 6
  1446  CA9215        	 JP Z,MPIR3
  1449  FE05          	 CP 5
  144B  CA9715        	 JP Z,MPIR4
  144E  FE04          	 CP 4
  1450  CA7915        	 JP Z,MPIR5
  1453  FE03          	 CP 3
  1455  CA7E15        	 JP Z,MPIR6
  1458  FE02          	 CP 2
  145A  CA8315        	 JP Z,MPIR7
  145D  FE01          	 CP 1
  145F  CA8815        	 JP Z,MPIR8
  1462                	IREND:
  1462  21C828        	 LD HL,GRD2
  1465  AF            	 XOR A
  1466  77            	 LD (HL),A
  1467  11C928        	 LD DE,GRD2+1
  146A  018F00        	 LD BC,143
  146D  EDB0          	 LDIR
  146F  11C828        	 LD DE,GRD2
  1472  E1            	 POP HL
  1473  F1            	 POP AF
  1474  4F            	 LD C,A
  1475  0608          	 LD B,8
  1477  0D            	 DEC C
  1478  C2DF13        	 JP NZ,LOOPM
  147B  01022F        	 LD BC,2F02H	;
  147E  3A7462        	 LD A,(X)
  1481  210000        	 LD HL,0
  1484  110006        	 LD DE,0600H
  1487  CD3221        	 CALL XSAN
  148A  09            	 ADD HL,BC
  148B  E5            	 PUSH HL
  148C  C1            	 POP BC
  148D  210000        	 LD HL,0
  1490  110600        	 LD DE,0006H
  1493  3A7562        	 LD A,(Y)
  1496  CD3221        	 CALL XSAN
  1499  09            	 ADD HL,BC
  149A  EB            	 EX DE,HL
  149B  21F914        	 LD HL,DATASB
  149E  0602          	 LD B,2
  14A0  CD8A1A        	 CALL GRP
  14A3  CD511A        	 CALL GRO
  14A6  CD1E03        	 CALL MAPL
  14A9  CD0919        	 CALL MCLEAR
  14AC  3A7362        	 LD A,(FL)
  14AF  2600          	 LD H,0
  14B1  6F            	 LD L,A
  14B2  CDD619        	 CALL ASCN
  14B5  21D419        	 LD HL,NMEMRY+3
  14B8  11F314        	 LD DE,DATAMM+6
  14BB  010200        	 LD BC,2
  14BE  EDB0          	 LDIR
  14C0  21ED14        	 LD HL,DATAMM
  14C3  0E0C          	 LD C,12
  14C5  CD0919        	 CALL MCLEAR
  14C8  CD8D19        	 CALL MSOBP
  14CB  3A7B62        	 LD A,(URDL)
  14CE  3D            	 DEC A
  14CF  21FB14        	 LD HL,DATASB+2
  14D2  110400        	 LD DE,4
  14D5  D5            	 PUSH DE
  14D6  CD3221        	 CALL XSAN
  14D9  C1            	 POP BC
  14DA  CD8D19        	 CALL MSOBP
  14DD  210B15        	 LD HL,DATASB+18
  14E0  0E05          	 LD C,5
  14E2  CD8919        	 CALL MSOB
  14E5  3E54          	 LD A,54H
  14E7  32F800        	 LD (0F8H),A
  14EA  C3EA01        	 JP START
  14ED                	DATAMM:
  14ED  BCDDC3DEDD2020	 DB "ｼﾝﾃﾞﾝ ","  ｶｲ  "
  14F9                	DATASB:
  14F9  0102          	 DB 01,02
  14FB  B7C02020CBB6DE	 DB "ｷﾀ  ","ﾋｶﾞｼ","ﾐﾅﾐ ","ﾆｼ  "
  150B  C9CEB3BAB3    	 DB "ﾉﾎｳｺｳ"
  1510                	MPS1:
  1510  E1            	 POP HL
  1511  E5            	 PUSH HL
  1512  0606          	 LD B,6
  1514  CBC6          	 SET 0,(HL)
  1516  23            	 INC HL
  1517  10FB          	 DJNZ MPS1+4
  1519  C3F313        	 JP RETP
  151C                	MPS2:
  151C  D1            	 POP DE
  151D  D5            	 PUSH DE
  151E  F5            	 PUSH AF
  151F  13            	 INC DE
  1520  13            	 INC DE
  1521  13            	 INC DE
  1522  13            	 INC DE
  1523  13            	 INC DE
  1524  3E3F          	 LD A,3FH
  1526  12            	 LD (DE),A
  1527  F1            	 POP AF
  1528  C3F713        	 JP RETP+4
  152B                	MPS3:
  152B  E1            	 POP HL
  152C  E5            	 PUSH HL
  152D  0606          	 LD B,6
  152F  CBEE          	 SET 5,(HL)
  1531  23            	 INC HL
  1532  10FB          	 DJNZ MPS3+4
  1534  C3FB13        	 JP RETP+8
  1537                	MPS4:
  1537  D1            	 POP DE
  1538  D5            	 PUSH DE
  1539  F5            	 PUSH AF
  153A  3E3F          	 LD A,3FH
  153C  12            	 LD (DE),A
  153D  F1            	 POP AF
  153E  C3FF13        	 JP RETP+12
  1541                	MPS1D:
  1541  E1            	 POP HL
  1542  E5            	 PUSH HL
  1543  23            	 INC HL
  1544  23            	 INC HL
  1545  CBCE          	 SET 1,(HL)
  1547  23            	 INC HL
  1548  CBCE          	 SET 1,(HL)
  154A  C30314        	 JP RETP+16
  154D                	MPS2D:
  154D  E1            	 POP HL
  154E  E5            	 PUSH HL
  154F  23            	 INC HL
  1550  23            	 INC HL
  1551  23            	 INC HL
  1552  23            	 INC HL
  1553  CBD6          	 SET 2,(HL)
  1555  CBDE          	 SET 3,(HL)
  1557  C30714        	 JP RETP+20
  155A                	MPS3D:
  155A  E1            	 POP HL
  155B  E5            	 PUSH HL
  155C  23            	 INC HL
  155D  23            	 INC HL
  155E  CBE6          	 SET 4,(HL)
  1560  23            	 INC HL
  1561  CBE6          	 SET 4,(HL)
  1563  C30B14        	 JP RETP+24
  1566                	MPS4D:
  1566  E1            	 POP HL
  1567  E5            	 PUSH HL
  1568  23            	 INC HL
  1569  CBD6          	 SET 2,(HL)
  156B  CBDE          	 SET 3,(HL)
  156D  C30F14        	 JP RETP+28
  1570                	MPIR1:
  1570  11002D        	 LD DE,2D00H
  1573  CD8A1A        	 CALL GRP
  1576  C36214        	 JP IREND
  1579                	MPIR5:
  1579  11182D        	 LD DE,2D18H
  157C  18F5          	 JR MPIR1+3
  157E                	MPIR6:
  157E  111E2D        	 LD DE,2D1EH
  1581  18F0          	 JR MPIR1+3
  1583                	MPIR7:
  1583  11242D        	 LD DE,2D24H
  1586  18EB          	 JR MPIR1+3
  1588                	MPIR8:
  1588  112A2D        	 LD DE,2D2AH
  158B  18E6          	 JR MPIR1+3
  158D                	MPIR2:
  158D  11062D        	 LD DE,2D06H
  1590  18E1          	 JR MPIR1+3
  1592                	MPIR3:
  1592  110C2D        	 LD DE,2D0CH
  1595  18DC          	 JR MPIR1+3
  1597                	MPIR4:
  1597  11122D        	 LD DE,2D12H
  159A  18D7          	 JR MPIR1+3
                      	
                      	;----------Rボタン--------
                      	
                      	;読む場所によってイベントが!ない
  159C                	READ:
  159C  3A9563        	 LD A,(BOOKF)
  159F  B7            	 OR A
  15A0  CA7613        	 JP Z,DATASV-8
  15A3  210316        	 LD HL,READDT
  15A6  0E0C          	 LD C,12
  15A8  CD2F19        	 CALL MSO
  15AB  CD2F2D        	 CALL FREECL	;FREE2=WORK
  15AE  3A9563        	 LD A,(BOOKF)
  15B1  210F16        	 LD HL,READDT+12
  15B4  11DC2C        	 LD DE,FREE2+1
  15B7  D9            	 EXX
  15B8  0604          	 LD B,4	;1
  15BA                	BOOKLD:
  15BA  D9            	 EXX
  15BB  1F            	 RRA	;0
  15BC  E5            	 PUSH HL
  15BD  D4FF15        	 CALL NC,BOOKNL
  15C0  010400        	 LD BC,4
  15C3  EDB0          	 LDIR
  15C5  13            	 INC DE
  15C6  13            	 INC DE
  15C7  E1            	 POP HL
  15C8  23            	 INC HL
  15C9  23            	 INC HL
  15CA  23            	 INC HL
  15CB  23            	 INC HL
  15CC  D9            	 EXX	;1
  15CD  10EB          	 DJNZ BOOKLD
  15CF  21DB2C        	 LD HL,FREE2
  15D2  0E18          	 LD C,24
  15D4  CD3319        	 CALL MSOP
  15D7                	REDMIN:
  15D7  CDD918        	 CALL CURSOL
  15DA                	REDTMIS:
  15DA  3AF300        	 LD A,(0F3H)
  15DD  47            	 LD B,A
  15DE  3A9563        	 LD A,(BOOKF)
  15E1  0E00          	 LD C,0
  15E3                	REDL:
  15E3  0C            	 INC C
  15E4  1F            	 RRA
  15E5  10FC          	 DJNZ REDL
  15E7  D27613        	 JP NC,DATASV-8
  15EA  21ED01        	 LD HL,MPL
  15ED  E5            	 PUSH HL
  15EE  79            	 LD A,C
  15EF  FE02          	 CP 2
  15F1  DAC50C        	 JP C,TVA
  15F4  CAD00C        	 JP Z,TVB
  15F7  FE03          	 CP 3
  15F9  CA010D        	 JP Z,TVD
  15FC  C3060D        	 JP TVE
  15FF                	BOOKNL:
  15FF  21C828        	 LD HL,GRD2
  1602  C9            	 RET
  1603                	READDT:
  1603  C4DEC9CEDDA6D6	 DB "ﾄﾞﾉﾎﾝｦ","ﾖﾐﾏｽｶ?"
  160F  CCA7D920B3A8D9	 DB "ﾌｧﾙ ","ｳｨﾙ ","ﾊｳﾚﾝ","ﾕｳｼｬ"
                      	
                      	;-------方向キー-------
                      	
  161F                	MDOWN:
  161F  3E54          	 LD A,54H
  1621  32F800        	 LD (0F8H),A
  1624  CDB904        	 CALL KBOFF
  1627  CD2C16        	 call mdownpc
  162A  187F          	 JR MRET
  162C                	mdownpc:
  162C  3A7B62        	 LD A,(URDL)
  162F  3D            	 DEC A
  1630  CC0F17        	 CALL Z,OVERH
  1633  3D            	 DEC A
  1634  CC0F17        	 CALL Z,OVERH
  1637  327B62        	 LD (URDL),A
  163A  C9            	 ret
  163B                	MUP:
  163B  3AF000        	 LD A,(0F0H)
  163E  FEFF          	 CP 0FFH
  1640  CA9A04        	 JP Z,KBA
  1643  CD5824        	 CALL BEPWKC
  1646  3A7B62        	 LD A,(URDL)
  1649  FE02          	 CP 2
  164B  2822          	 JR Z,MUPR
  164D  3812          	 JR C,MUPU
  164F  FE04          	 CP 4
  1651  282A          	 JR Z,MUPL
                      	;MUPD
  1653  3A7562        	 LD A,(Y)
  1656  3C            	 INC A
  1657  FE08          	 CP 8
  1659  CC0917        	 CALL Z,OVER8
  165C  327562        	 LD (Y),A
  165F  184A          	 JR MRET
  1661                	MUPU:
  1661  3A7562        	 LD A,(Y)
  1664  3D            	 DEC A
  1665  FEFF          	 CP 0FFH
  1667  CC0C17        	 CALL Z,OVER0
  166A  327562        	 LD (Y),A
  166D  183C          	 JR MRET
  166F                	MUPR:
  166F  3A7462        	 LD A,(X)
  1672  3C            	 INC A
  1673  FE08          	 CP 8
  1675  CC0917        	 CALL Z,OVER8
  1678  327462        	 LD (X),A
  167B  182E          	 JR MRET
  167D                	MUPL:
  167D  3A7462        	 LD A,(X)
  1680  3D            	 DEC A
  1681  FEFF          	 CP 0FFH
  1683  CC0C17        	 CALL Z,OVER0
  1686  327462        	 LD (X),A
  1689  1820          	 JR MRET
  168B                	MLEFT:
  168B  3E54          	 LD A,54H
  168D  32F800        	 LD (0F8H),A
  1690  3A7B62        	 LD A,(URDL)
  1693  3D            	 DEC A
  1694  CC0F17        	 CALL Z,OVERH
  1697  327B62        	 LD (URDL),A
  169A  180F          	 JR MRET
  169C                	MRIGHT:
  169C  3E54          	 LD A,54H
  169E  32F800        	 LD (0F8H),A
  16A1  3A7B62        	 LD A,(URDL)
  16A4  3C            	 INC A
  16A5  CD1217        	 CALL OVERH+3
  16A8  327B62        	 LD (URDL),A
  16AB                	MRET:
  16AB  CDB904        	 CALL KBOFF
  16AE  CD511A        	 CALL GRO
  16B1  C34A02        	 JP MPLB
                      	
                      	;--------方向ｾｯﾄ--------
                      	
  16B4                	HK:
  16B4  210941        	 LD HL,MAPM
  16B7  0606          	 LD B,6
  16B9  3A7B62        	 LD A,(URDL)
  16BC  FE02          	HKLOOP:CP 2;LOOP
  16BE  280E          	 JR Z,HK2R
  16C0  FE04          	 CP 4
  16C2  2816          	 JR Z,HK4L
                      	;HK3D:
  16C4  3E02          	 LD A,2
  16C6  32FD00        	 LD (0FDH),A
  16C9  32FE00        	 LD (0FEH),A
  16CC  1816          	 JR HKM
  16CE                	HK2R:
  16CE  3E01          	 LD A,1
  16D0  32FD00        	 LD (0FDH),A
  16D3  3E03          	 LD A,3
  16D5  32FE00        	 LD (0FEH),A
  16D8  180A          	 JR HKM
  16DA                	HK4L:
  16DA  3E03          	 LD A,3
  16DC  32FD00        	 LD (0FDH),A
  16DF  3E01          	 LD A,1
  16E1  32FE00        	 LD (0FEH),A
  16E4                	HKM:
  16E4  C5            	 PUSH BC
  16E5  3AFD00        	 LD A,(0FDH)
  16E8  47            	 LD B,A
  16E9  7E            	 LD A,(HL)
  16EA  E60F          	 AND 00001111B
  16EC  CB3F          	HKM1:SRL A
  16EE  DC1817        	 CALL C,OBIT4
  16F1  10F9          	 DJNZ HKM1
  16F3  5F            	 LD E,A
  16F4  3AFE00        	 LD A,(0FEH)
  16F7  47            	 LD B,A
  16F8  7E            	 LD A,(HL)
  16F9  E6F0          	 AND 11110000B
  16FB  CB27          	HKM2:SLA A
  16FD  DC1B17        	 CALL C,OBIT5
  1700  10F9          	 DJNZ HKM2
  1702  B3            	 OR E
  1703  77            	 LD (HL),A
  1704  23            	 INC HL
  1705  C1            	 POP BC
  1706  10DC          	 DJNZ HKM
  1708  C9            	 RET
                      	
                      	;--------BIT ｾｯﾄ関係--------
                      	
  1709                	OVER8:
  1709  3E00          	 LD A,0
  170B  C9            	 RET
  170C  3E07          	OVER0:LD A,7
  170E  C9            	 RET
  170F  3E04          	OVERH:LD A,4
  1711  C9            	 RET
  1712  FE05          	 CP 5;+3
  1714  C0            	 RET NZ
  1715  3E01          	 LD A,1
  1717  C9            	 RET
  1718                	OBIT4:
  1718  C608          	 ADD A,8
  171A  C9            	 RET
  171B                	OBIT5:
  171B  C610          	 ADD A,10H
  171D  C9            	 RET
                      	
                      	;-----------FLASH-----------
                      	
  171E                	FLASH:
  171E  CD3424        	 CALL BEPMGC
  1721                	FLASHN:
  1721  47            	 LD B,A
  1722  C5            	 PUSH BC	;LOOP
  1723                	FLASE1:
  1723  3EA7          	 LD A,0A7H
  1725  F5            	 PUSH AF
  1726  D340          	 OUT (40H),A
  1728  CD3A17        	 CALL TIM30
  172B  F1            	 POP AF
  172C                	FLASE2:
  172C  3D            	 DEC A
  172D  D340          	 OUT (40H),A
  172F  CD3A17        	 CALL TIM30
  1732  C1            	 POP BC
  1733  10ED          	 DJNZ FLASH+4
  1735  C9            	 RET
                      	
                      	;---------ﾀｲﾏｰ　ﾃﾞｰﾀ---------
                      	
  1736                	TIMBTL:
  1736  3E32          	 LD A,50
  1738  1806          	 JR TIMER
  173A                	TIM30:
  173A  3E25          	 LD A,37
  173C  1802          	 JR TIMER
  173E                	TIM255:
  173E  3EFF          	 LD A,255
  1740                	TIMER:;A:ｼﾞｶﾝ
  1740  010000        	 LD BC,0
  1743  03            	 INC BC;LOOP
  1744  000000000000  	 DB 0,0,0,0,0,0
  174A  A8            	 XOR B
  174B  C8            	 RET Z
  174C  18F5          	 JR TIMER+3
                      	
                      	;---------ｱｲﾃﾑ追加----------
                      	
  174E                	ITEMAD:;A=ITEM NO.	HL=ITEM NAME AD.
  174E  B7            	 OR A
  174F  F5            	 PUSH AF
  1750  119617        	 LD DE,ITEMAM
  1753  D5            	 PUSH DE
  1754  010800        	 LD BC,8
  1757  EDB0          	 LDIR
  1759  E1            	 POP HL
  175A                	ITMAL3:	;+1
  175A  0E18          	 LD C,24
  175C  CD4B19        	 CALL MSO2
  175F  AF            	 XOR A
  1760  216762        	 LD HL,ITEM
  1763  010B00        	 LD BC,11
  1766  EDB1          	 CPIR
  1768  2004          	 JR NZ,ITEMNA
  176A  2B            	 DEC HL
  176B  F1            	 POP AF
  176C  77            	 LD (HL),A
  176D  C9            	 RET
  176E                	ITEMNA:
  176E  21AE17        	 LD HL,ITEMAM+24
  1771  0E2A          	 LD C,42
  1773  CD8919        	 CALL MSOB
  1776  CD8919        	 CALL MSOB
  1779                	ITMAL2:
  1779  CDB706        	 CALL BUYSEL
  177C  7E            	 LD A,(HL)
  177D  FE0F          	 CP 0FH
  177F  2812          	 JR Z,ITMAKI
  1781  17            	 RLA
  1782  3008          	 JR NC,ITEMAL
  1784  17            	 RLA
  1785  3005          	 JR NC,ITEMAL
  1787  CD4318        	 CALL CURD2;GRPD
  178A  18ED          	 JR ITMAL2
  178C                	ITEMAL:
  178C  AF            	 XOR A
  178D  77            	 LD (HL),A
  178E  219617        	 LD HL,ITEMAM
  1791  18C7          	 JR ITMAL3
  1793                	ITMAKI:
  1793  F1            	 POP AF
  1794  37            	 SCF
  1795  C9            	 RET
  1796                	ITEMAM:
  1796  20202020202020	 DB "      ","      ","ｦ     ","ﾃﾆｲﾚﾀ!"
  17AE  BCB6BC202020D3	 DB "ｼｶｼ   ","ﾓﾁﾓﾉｶﾞ","ｲｯﾊﾟｲ!",0F9H
  17C1  BAB3B6DDBDD9C4	 DB "ｺｳｶﾝｽﾙ","ﾄﾞｳｸﾞｦ","ｴﾗﾝﾃﾞ ","ｸﾀﾞｻｲ ",0F9H
                      	
                      	;---------ｶｰｿﾙ関係-----------
                      	
  17DA                	CURS2:;DE=2C03H
  17DA  213318        	 LD HL,CURS2E
  17DD  E5            	 PUSH HL
  17DE  FE1F          	 CP 1FH
  17E0  280D          	 JR Z,DOWN2
  17E2  FE20          	 CP 20H
  17E4  2818          	 JR Z,UP2
  17E6  FE21          	 CP 21H
  17E8  2821          	 JR Z,LEFT2
  17EA  FE22          	 CP 22H
  17EC  282A          	 JR Z,RIGHT2
  17EE  C9            	 RET
  17EF                	DOWN2:
  17EF  3AF200        	 LD A,(0F2H)
  17F2  1E0C          	 LD E,12	;3+12*4
  17F4  83            	 ADD A,E
  17F5  FE28          	 CP 40	;ｵｵﾖｿ ｼﾞｬﾝﾌﾟｻｷ
  17F7  D42A18        	 CALL NC,CURER2
  17FA  32F200        	 LD (0F2H),A
  17FD  C9            	 RET
  17FE                	UP2:
  17FE  3AF200        	 LD A,(0F2H)
  1801  1E0C          	 LD E,12	;3-12*4
  1803  93            	 SUB E
  1804  FE28          	 CP 40	;ｵｵﾖｿ ｼﾞｬﾝﾌﾟｻｷ
  1806  D42718        	 CALL NC,CURER
  1809  18EF          	 JR UP2-4
  180B                	LEFT2:
  180B  3AF300        	 LD A,(0F3H)
  180E  1612          	 LD D,18
  1810  92            	 SUB D
  1811  FE2C          	 CP 2CH
  1813  DC2D18        	 CALL C,CURDR
  1816  180B          	 JR CURER-4
  1818                	RIGHT2:
  1818  3AF300        	 LD A,(0F3H)
  181B  1612          	 LD D,18
  181D  82            	 ADD A,D
  181E  FE51          	 CP 51H
  1820  D43018        	 CALL NC,CURDR2
  1823  32F300        	 LD (0F3H),A
  1826  C9            	 RET
  1827                	CURER:
  1827  3E27          	 LD A,39
  1829  C9            	 RET
  182A                	CURER2:
  182A  3E03          	 LD A,3
  182C  C9            	 RET
  182D                	CURDR:
  182D  3E50          	 LD A,50H
  182F  C9            	 RET
  1830                	CURDR2:
  1830  3E2C          	 LD A,2CH
  1832  C9            	 RET
  1833                	CURS2E:
  1833  ED5BF200      	 LD DE,(0F2H)
  1837  0606          	 LD B,6
  1839  21A736        	 LD HL,CURG
  183C  CD8A1A        	 CALL GRP
  183F  CD511A        	 CALL GRO
  1842  C9            	 RET
  1843                	CURD2:
  1843  ED5BF200      	 LD DE,(0F2H)
  1847  0606          	 LD B,6
  1849  21C828        	 LD HL,GRD2
  184C  CD3C1B        	 CALL GRPD
  184F  C9            	 RET
  1850                	CURS:
  1850  FE1F          	 CP 1FH
  1852  2815          	 JR Z,DOWN
  1854  FE20          	 CP 20H
  1856  2809          	 JR Z,UP
  1858  FE21          	 CP 21H
  185A  2815          	 JR Z,LEFT
  185C  FE22          	 CP 22H
  185E  2819          	 JR Z,RIGHT
  1860  C9            	 RET
  1861  3AF300        	UP:LD A,(0F3H)
  1864  3D            	 DEC A
  1865  32F300        	 LD (0F3H),A
  1868  C9            	 RET
  1869  3AF300        	DOWN:LD A,(0F3H)
  186C  3C            	 INC A
  186D  32F300        	 LD (0F3H),A
  1870  C9            	 RET
  1871  3AF200        	LEFT:LD A,(0F2H)
  1874  3D            	 DEC A
  1875  32F200        	 LD (0F2H),A
  1878  C9            	 RET 
  1879  3AF200        	RIGHT:LD A,(0F2H)
  187C  3C            	 INC A
  187D  32F200        	 LD (0F2H),A
  1880  C9            	 RET
  1881  ED5BF200      	CURP:LD DE,(0F2H)
  1885  0606          	 LD B,6
  1887  21A736        	 LD HL,CURG
  188A  CDD0BF        	 CALL 0BFD0H
  188D  C9            	 RET
  188E  ED5BF200      	CURD:LD DE,(0F2H)
  1892  0606          	 LD B,6
  1894  21C828        	 LD HL,GRD2
  1897  CDD0BF        	 CALL 0BFD0H
  189A  C9            	 RET
  189B                	CUR1:
  189B  ED5BF200      	 LD DE,(0F2H)
  189F  7A            	 LD A,D
  18A0  FE01          	 CP 1
  18A2  CCB418        	 CALL Z,PLUS
  18A5  FE04          	 CP 4
  18A7  CCB718        	 CALL Z,PLUS+3
  18AA  1E08          	 LD E,8
  18AC  ED53F200      	 LD (0F2H),DE
  18B0  CD8118        	 CALL CURP
  18B3  C9            	 RET
  18B4  1603          	PLUS:LD D,3
  18B6  C9            	 RET
                      	;MINUS
  18B7  1602          	 LD D,2
  18B9  C9            	 RET
  18BA                	CUR2:
  18BA  ED5BF200      	 LD DE,(0F2H)
  18BE  7A            	 LD A,D
  18BF  FE00          	 CP 0
  18C1  CCD318        	 CALL Z,PLUS2
  18C4  FE05          	 CP 5
  18C6  CCD618        	 CALL Z,PLUS2+3
  18C9  1E11          	 LD E,11H
  18CB  ED53F200      	 LD (0F2H),DE
  18CF  CD8118        	 CALL CURP
  18D2  C9            	 RET
  18D3  1604          	PLUS2:LD D,4
  18D5  C9            	 RET
                      	;MINUS2
  18D6  1601          	 LD D,1
  18D8  C9            	 RET
  18D9                	CURSOL:
  18D9  211101        	 LD HL,0111H
  18DC  22F200        	 LD (0F2H),HL
  18DF  CD8118        	 CALL CURP
  18E2  CDFDBC        	 CALL 48381;LOOP
  18E5  CD4E24        	 CALL BEPMSC
  18E8  FE28          	 CP 28H
  18EA  C8            	 RET Z
  18EB  E1            	 POP HL
  18EC  FE51          	 CP 51H
  18EE  280E          	 JR Z,RETT
  18F0  E5            	 PUSH HL
  18F1  F5            	 PUSH AF
  18F2  CD8E18        	 CALL CURD
  18F5  F1            	 POP AF
  18F6  CD5018        	 CALL CURS
  18F9  CDBA18        	 CALL CUR2
  18FC  18E4          	 JR CURSOL+9
  18FE                	RETT:
  18FE  3AA463        	 LD A,(BF)
  1901  17            	 RLA
  1902  D0            	 RET NC
  1903  F1            	 POP AF
  1904  AF            	 XOR A
  1905  32A463        	 LD (BF),A
  1908  C9            	 RET
                      	
                      	;----------ﾒｯｾｰｼﾞ関係----------
                      	
  1909                	MCLEAR:
  1909  D9            	 EXX
  190A  21C828        	 LD HL,GRD2
  190D  11B82C        	 LD DE,MRAM
  1910  011800        	 LD BC,24
  1913  EDB0          	 LDIR
  1915  D9            	 EXX
  1916  C9            	 RET
  1917                	MSD:
  1917  21C828        	 LD HL,GRD2
  191A  0E18          	 LD C,24
  191C  CD3319        	 CALL MSOP
  191F  C9            	 RET
  1920                	MSOS:
  1920  E5            	 PUSH HL
  1921  C5            	 PUSH BC
  1922  CD0919        	 CALL MCLEAR
  1925  C1            	 POP BC
  1926  E1            	 POP HL
  1927  0600          	 LD B,0
  1929  11B82C        	 LD DE,MRAM
  192C  EDB0          	 LDIR
  192E  C9            	 RET
  192F                	MSO:
  192F  118519        	 LD DE,MSORET
  1932  D5            	 PUSH DE
  1933                	MSOP:
  1933  CD2019        	 CALL MSOS
  1936  0604          	 LD B,4
  1938  21B82C        	 LD HL,MRAM
  193B  1601          	 LD D,1
  193D                	LOOP10:
  193D  C5            	 PUSH BC;LOOP
  193E                	LP10EX:
  193E  1E11          	 LD E,17
  1940  0606          	 LD B,6
  1942  CDF1BF        	 CALL 0BFF1H
  1945  23            	 INC HL
  1946  14            	 INC D
  1947  C1            	 POP BC
  1948  10F3          	 DJNZ LOOP10
  194A  C9            	 RET
  194B                	MSO2:
  194B  118519        	 LD DE,MSORET
  194E  D5            	 PUSH DE
  194F                	MSO2P:
  194F  CD2019        	 CALL MSOS
  1952  0604          	 LD B,4
  1954  21B82C        	 LD HL,MRAM
  1957  1600          	 LD D,0
  1959                	LOOP11:
  1959  C5            	 PUSH BC;LOOP
  195A  14            	 INC D
  195B  1E11          	 LD E,11H
  195D  0606          	 LD B,6
  195F  7E            	 LD A,(HL);LOOP
  1960  326A19        	 LD (LOOP1L+1),A
  1963  E5            	 PUSH HL
  1964  C5            	 PUSH BC
  1965  D5            	 PUSH DE
  1966  CD62BE        	 CALL 0BE62H
  1969                	LOOP1L:
  1969  3E00          	 LD A,0
  196B  B7            	 OR A
  196C  2807          	 JR Z,LOOP2L
  196E  FE20          	 CP 20H
  1970  2803          	 JR Z,LOOP2L
  1972  CD4E24        	 CALL BEPMSC
  1975                	LOOP2L:
  1975  3E11          	 LD A,17
  1977  CD4017        	 CALL TIMER
  197A  D1            	 POP DE
  197B  C1            	 POP BC
  197C  E1            	 POP HL
  197D  1C            	 INC E
  197E  23            	 INC HL
  197F  10DE          	 DJNZ LOOP11+6
  1981  C1            	 POP BC
  1982  10D5          	 DJNZ LOOP11
  1984  C9            	 RET
  1985                	MSORET:
  1985  CDFDBC        	 CALL 48381
  1988  C9            	 RET
  1989                	MSOB:
  1989  118519        	 LD DE,MSORET
  198C  D5            	 PUSH DE
  198D                	MSOBP:
  198D                	MSOBL:
  198D  AF            	 XOR A
  198E  0606          	 LD B,6
  1990  3C            	 INC A	;MS LDIR COUNT
  1991  0D            	 DEC C	;LOOP COUNT
  1992  2802          	 JR Z,MSOBL2
  1994  10FA          	 DJNZ MSOBL+3
  1996                	MSOBL2:
  1996  C5            	 PUSH BC	;残り転送回数
  1997  E5            	 PUSH HL	;ﾃﾞｰﾀﾎﾟｲﾝﾀ
  1998  21BE2C        	 LD HL,MRAM+6
  199B  011200        	 LD BC,18
  199E  11B82C        	 LD DE,MRAM
  19A1  EDB0          	 LDIR
  19A3  E1            	 POP HL
  19A4  4F            	 LD C,A
  19A5  11CA2C        	 LD DE,MRAM+18
  19A8  EDB0          	 LDIR
  19AA  E5            	 PUSH HL
  19AB  0603          	 LD B,3
  19AD  CD3819        	 CALL LOOP10-5
  19B0  0601          	 LD B,1
  19B2  21CA2C        	 LD HL,MRAM+18
  19B5  1603          	 LD D,3
  19B7  CD5919        	 CALL LOOP11
  19BA  E1            	 POP HL
  19BB  C1            	 POP BC
  19BC  7E            	 LD A,(HL)	;
  19BD  23            	 INC HL		;
  19BE  FEF9          	 CP 0F9H	;
  19C0  C8            	 RET Z		;
  19C1  2B            	 DEC HL
  19C2  0C            	 INC C
  19C3  0D            	 DEC C
  19C4  20C7          	 JR NZ,MSOBL
  19C6  C9            	 RET
  19C7                	MSOBR:
  19C7  0E30          	 LD C,48
  19C9  C5            	 PUSH BC
  19CA  CD8919        	 CALL MSOB
  19CD  C1            	 POP BC
  19CE  10F7          	 DJNZ MSOBR
  19D0  C9            	 RET
                      	
                      	;------数字HEXをｱｽｷｰに------
                      	
  19D1                	NMEMRY:
  19D1  0000000000    	 DB 0,0,0,0,0
  19D6                	ASCN:;HL=数値(2byte)→DEのｱﾄﾞﾚｽ
  19D6  11D119        	 LD DE,NMEMRY
  19D9  011027        	 LD BC,10000
  19DC  CD101A        	 CALL WARIS
  19DF  01E803        	 LD BC,1000
  19E2  CD101A        	 CALL WARIS
  19E5  016400        	 LD BC,100
  19E8  CD101A        	 CALL WARIS
  19EB  010A00        	 LD BC,10
  19EE  CD101A        	 CALL WARIS
  19F1  7D            	 LD A,L
  19F2  12            	 LD (DE),A
  19F3  0605          	 LD B,5
  19F5  11D119        	 LD DE,NMEMRY
  19F8                	ASCL:
  19F8  1A            	 LD A,(DE)
  19F9  FE00          	 CP 0
  19FB  2802          	 JR Z,ASCL2
  19FD  1808          	 JR ASC2
  19FF                	ASCL2:
  19FF  13            	 INC DE
  1A00  10F6          	 DJNZ ASCL
  1A02  0601          	 LD B,1
  1A04  11D519        	 LD DE,NMEMRY+4
  1A07                	ASC2:
  1A07  1A            	 LD A,(DE)
  1A08  0E30          	 LD C,30H
  1A0A  81            	 ADD A,C
  1A0B  12            	 LD (DE),A
  1A0C  13            	 INC DE
  1A0D  10F8          	 DJNZ ASC2
  1A0F  C9            	 RET
  1A10                	WARIS:
  1A10  AF            	 XOR A
                      	;WARI1:
  1A11  ED42          	 SBC HL,BC
  1A13  3803          	 JR C,WARI2
  1A15  3C            	 INC A
  1A16  18F9          	 JR WARIS+1
  1A18                	WARI2:
  1A18  09            	 ADD HL,BC
  1A19  12            	 LD (DE),A
  1A1A  13            	 INC DE		;
  1A1B  C9            	 RET
                      	
                      	;----------ｸﾞﾗﾌｨｯｸ関係---------
                      	
  1A1C                	GRD:		;B
  1A1C  50            	 LD D,B
  1A1D  15            	 DEC D
  1A1E  C5            	 PUSH BC;LOOP
  1A1F  1E00          	 LD E,0
  1A21  0690          	 LD B,144
  1A23  21C828        	 LD HL,GRD2
  1A26  CDD0BF        	 CALL 0BFD0H
  1A29  3E0D          	 LD A,13
  1A2B  CD4017        	 CALL TIMER
  1A2E  15            	 DEC D
  1A2F  C1            	 POP BC
  1A30  10EC          	 DJNZ GRD+2
  1A32  1600          	 LD D,0
  1A34  C9            	 RET
  1A35                	WGRO:;A=指定
  1A35  3E2A          	 LD A,42
  1A37  325C1A        	 LD (GROEX+1),A
  1A3A  CD511A        	 CALL GRO
  1A3D  3E90          	 LD A,144
  1A3F  325C1A        	 LD (GROEX+1),A
  1A42  C9            	 RET
  1A43                	WGRO2:;A=指定
  1A43  3E2A          	 LD A,42
  1A45  32761A        	 LD (GRO2EX+1),A
  1A48  CD6B1A        	 CALL GRO2
  1A4B  3E90          	 LD A,144
  1A4D  32761A        	 LD (GRO2EX+1),A
  1A50  C9            	 RET
  1A51                	GRO:
  1A51  0606          	 LD B,6
  1A53  215829        	 LD HL,GROE1
  1A56  1600          	 LD D,0
  1A58  C5            	 PUSH BC;LOOP
  1A59  1E00          	 LD E,0
  1A5B                	GROEX:
  1A5B  0690          	 LD B,144
  1A5D  E5            	 PUSH HL
  1A5E  CDD0BF        	 CALL 0BFD0H
  1A61  E1            	 POP HL
  1A62  019000        	 LD BC,144
  1A65  09            	 ADD HL,BC
  1A66  14            	 INC D
  1A67  C1            	 POP BC
  1A68  10EE          	 DJNZ GRO+7
  1A6A  C9            	 RET
  1A6B                	GRO2:
  1A6B  0606          	 LD B,6
  1A6D  21282C        	 LD HL,GROE6
  1A70  1605          	 LD D,5
  1A72  C5            	 PUSH BC;LOOP
  1A73  1E00          	 LD E,0
  1A75                	GRO2EX:
  1A75  0690          	 LD B,144
  1A77  E5            	 PUSH HL
  1A78  CDD0BF        	 CALL 0BFD0H
  1A7B  E1            	 POP HL
  1A7C  0170FF        	 LD BC,0FF70H;-144
  1A7F  09            	 ADD HL,BC
  1A80  15            	 DEC D
  1A81  3E12          	 LD A,18
  1A83  CD4017        	 CALL TIMER
  1A86  C1            	 POP BC
  1A87  10E9          	 DJNZ GRO2+7
  1A89  C9            	 RET
  1A8A                	GRP:;自由に配置
  1A8A  22112D        	 LD (FREE2+54),HL	;DATA
  1A8D  ED43132D      	 LD (FREE2+56),BC	;範囲<54
  1A91  ED53152D      	 LD (FREE2+58),DE	;X Y
  1A95  7B            	 LD A,E
  1A96  0E00          	 LD C,0
  1A98                	GRPLP1:
  1A98  FE08          	 CP 8
  1A9A  3805          	 JR C,GL1
  1A9C  0C            	 INC C
  1A9D  D608          	 SUB 8
  1A9F  18F7          	 JR GRPLP1
  1AA1                	GL1:
  1AA1  32192D        	 LD (FREE2+62),A
  1AA4  D608          	 SUB 8
  1AA6  ED44          	 NEG
  1AA8  321A2D        	 LD (FREE2+63),A
  1AAB  215829        	 LD HL,GROE1
  1AAE  79            	 LD A,C
  1AAF  321B2D        	 LD (FREE2+64),A
  1AB2  FE00          	 CP 0
  1AB4  2806          	 JR Z,GL2
  1AB6  119000        	 LD DE,144
  1AB9  CD3221        	 CALL XSAN
  1ABC  22172D        	GL2:LD (FREE2+60),HL
  1ABF  CD2C1B        	 CALL GSTOCK
  1AC2  3A192D        	 LD A,(FREE2+62)
  1AC5  2A172D        	 LD HL,(FREE2+60)
  1AC8  ED4B132D      	 LD BC,(FREE2+56)
  1ACC  ED5B152D      	 LD DE,(FREE2+58)
  1AD0  5A            	 LD E,D
  1AD1  1600          	 LD D,0
  1AD3  19            	 ADD HL,DE
  1AD4  EB            	 EX DE,HL
  1AD5  21DB2C        	 LD HL,FREE2
  1AD8  32F000        	 LD (0F0H),A
  1ADB                	GRPLP3:
  1ADB  F5            	 PUSH AF
  1ADC  FE00          	 CP 0
  1ADE  2805          	 JR Z,STLP1
  1AE0                	GRPLP4:
  1AE0  CB26          	 SLA (HL)
  1AE2  3D            	 DEC A
  1AE3  20FB          	 JR NZ,GRPLP4
  1AE5                	STLP1:
  1AE5  7E            	 LD A,(HL)
  1AE6  4F            	 LD C,A
  1AE7  1A            	 LD A,(DE)
  1AE8                	STEX1:
  1AE8  B1            	 OR C
  1AE9  12            	 LD (DE),A
  1AEA  23            	 INC HL
  1AEB  13            	 INC DE
  1AEC  F1            	 POP AF
  1AED  10EC          	 DJNZ GRPLP3
  1AEF  3A1B2D        	 LD A,(FREE2+64)
  1AF2  FE05          	 CP 5
  1AF4  C8            	 RET Z
  1AF5  CD2C1B        	 CALL GSTOCK
  1AF8  2A172D        	 LD HL,(FREE2+60)
  1AFB  119000        	 LD DE,144
  1AFE  19            	 ADD HL,DE
  1AFF  22172D        	 LD (FREE2+60),HL
  1B02  ED4B132D      	 LD BC,(FREE2+56)
  1B06  ED5B152D      	 LD DE,(FREE2+58)
  1B0A  5A            	 LD E,D
  1B0B  1600          	 LD D,0
  1B0D  19            	 ADD HL,DE
  1B0E  EB            	 EX DE,HL
  1B0F  3A1A2D        	 LD A,(FREE2+63)
  1B12  B7            	 OR A
  1B13  2816          	 JR Z,GEND
  1B15  21DB2C        	 LD HL,FREE2
  1B18                	GRPLP5:
  1B18  F5            	 PUSH AF
  1B19  B7            	 OR A
  1B1A  2805          	 JR Z,STLP2
  1B1C                	GRPLP6:
  1B1C  CB3E          	 SRL (HL)
  1B1E  3D            	 DEC A
  1B1F  20FB          	 JR NZ,GRPLP6
  1B21                	STLP2:
  1B21  7E            	 LD A,(HL)
  1B22  4F            	 LD C,A
  1B23  1A            	 LD A,(DE)
  1B24                	STEX2:
  1B24  B1            	 OR C
  1B25  12            	 LD (DE),A
  1B26  23            	 INC HL
  1B27  13            	 INC DE
  1B28  F1            	 POP AF
  1B29  10ED          	 DJNZ GRPLP5
  1B2B                	GEND:
  1B2B  C9            	 RET
  1B2C                	GSTOCK:
  1B2C  ED4B132D      	 LD BC,(FREE2+56)
  1B30  2A112D        	 LD HL,(FREE2+54)
  1B33  11DB2C        	 LD DE,FREE2
  1B36  48            	 LD C,B
  1B37  0600          	 LD B,0
  1B39  EDB0          	 LDIR
  1B3B  C9            	 RET
  1B3C                	GRPD:
  1B3C  3EAF          	 LD A,0AFH
  1B3E  32E81A        	 LD (STEX1),A
  1B41  32241B        	 LD (STEX2),A
  1B44  CD8A1A        	 CALL GRP
  1B47  3EB1          	 LD A,0B1H
  1B49  32E81A        	 LD (STEX1),A
  1B4C  32241B        	 LD (STEX2),A
  1B4F  C9            	 RET
  1B50                	GROB:
  1B50  D9            	 EXX
  1B51  215829        	 LD HL,GROE1
  1B54  36FF          	 LD (HL),0FFH
  1B56  115929        	 LD DE,GROE1+1
  1B59  015F03        	 LD BC,863
  1B5C  EDB0          	 LDIR
  1B5E  CD511A        	 CALL GRO
  1B61  D9            	 EXX
  1B62  C9            	 RET
  1B63  21C828        	GROR:LD HL,GRD2
  1B66  115829        	 LD DE,GROE1
  1B69  016003        	 LD BC,864
  1B6C  EDB0          	 LDIR
  1B6E  C9            	 RET
                      	
                      	;-------ONEND--------------
                      	
  1B6F                	ONEND:;HLﾊ､ﾓﾄﾞﾙｱﾄﾞﾚｽ
  1B6F  CD53BE        	 CALL 0BE53H
  1B72  EE51          	 XOR 51H
  1B74  C8            	 RET Z
  1B75  2AF000        	 LD HL,(0F0H)
  1B78  E9            	 JP (HL)
                      	
                      	;-------RAND----------
                      	
  1B79                	RAND:;Aﾆｶｴｽ
  1B79  E5            	 PUSH HL
  1B7A  210000        	 LD HL,0
  1B7D  54            	 LD D,H
  1B7E  5D            	 LD E,L
  1B7F  29            	 ADD HL,HL
  1B80  29            	 ADD HL,HL
  1B81  19            	 ADD HL,DE
  1B82  11475D        	 LD DE,5D47H
  1B85  19            	 ADD HL,DE
  1B86  227B1B        	 LD (RAND+2),HL
  1B89  7C            	 LD A,H
  1B8A  E1            	 POP HL
  1B8B  C9            	 RET
  1B8C                	RAND4:
  1B8C  CD791B        	 CALL RAND
  1B8F  E603          	 AND 3
  1B91  C9            	 RET
                      	
                      	;-------BATTLE------------
                      	
  1B92                	BATTLE:
  1B92  AF            	 XOR A
  1B93  21A363        	 LD HL,STF
  1B96  77            	 LD (HL),A
  1B97  23            	 INC HL
  1B98  77            	 LD (HL),A	;BF
  1B99  3A6462        	 LD A,(EAP)
  1B9C  32A163        	 LD (NAP),A
  1B9F  3A6562        	 LD A,(EDP)
  1BA2  32A263        	 LD (NDP),A
  1BA5  3A7362        	 LD A,(FL)
  1BA8  3D            	 DEC A
  1BA9  2805          	 JR Z,BATTL1
  1BAB  47            	 LD B,A
  1BAC  AF            	 XOR A
  1BAD  3C            	 INC A
  1BAE  10FD          	 DJNZ BATTL1-3
  1BB0                	BATTL1:
  1BB0  47            	 LD B,A
  1BB1  CD8C1B        	 CALL RAND4
  1BB4  80            	 ADD A,B
  1BB5  329663        	 LD (TNO),A
  1BB8  217E20        	 LD HL,TNAME
  1BBB  110600        	 LD DE,6
  1BBE  CD3221        	 CALL XSAN
  1BC1                	BATTL2:
  1BC1  119763        	 LD DE,TNNAME;ｲﾁｼﾞﾎｿﾞﾝ
  1BC4  010600        	 LD BC,6
  1BC7  E5            	 PUSH HL
  1BC8  EDB0          	 LDIR
  1BCA  E1            	 POP HL
  1BCB  0E06          	 LD C,6
  1BCD  11B82C        	 LD DE,MRAM
  1BD0  EDB0          	 LDIR
  1BD2  212420        	 LD HL,BATTLM
  1BD5  11BE2C        	 LD DE,MRAM+6
  1BD8  011200        	 LD BC,18
  1BDB  EDB0          	 LDIR
  1BDD  CD3619        	 CALL LOOP10-7
  1BE0  CD4424        	 CALL BEPBTC
  1BE3  CDFDBC        	 CALL 48381
  1BE6                	BTLOAD:
  1BE6  21EA20        	 LD HL,TPDATA
  1BE9  3A9663        	 LD A,(TNO)
  1BEC  110400        	 LD DE,4
  1BEF  CD3221        	 CALL XSAN
  1BF2                	BTLD1:
  1BF2  119D63        	 LD DE,THP
  1BF5  010400        	 LD BC,4
  1BF8  EDB0          	 LDIR
  1BFA                	BTMLP:
  1BFA  CDB623        	 CALL TGRO
  1BFD  37            	 SCF
  1BFE  CD5E0F        	 CALL BTCMST
  1C01  214E20        	 LD HL,BATLCM
  1C04  0E18          	 LD C,24
  1C06  CD3319        	 CALL MSOP
  1C09  CDD918        	 CALL CURSOL
  1C0C                	BTMIS:
  1C0C  3AF300        	 LD A,(0F3H)
  1C0F  FE02          	 CP 2
  1C11  DA1F1C        	 JP C,BATACK
  1C14  CA331C        	 JP Z,BMAGIC
  1C17  FE04          	 CP 4
  1C19  DA3B1C        	 JP C,BITEM
  1C1C  CA481C        	 JP Z,BESKP
  1C1F                	BATACK:;ダメージ平均値＝(自分の攻撃力÷2) - (敵の守備力÷4)
  1C1F  213620        	 LD HL,ALSATC
  1C22  0E0C          	 LD C,12
  1C24  CD8D19        	 CALL MSOBP
  1C27  3AA163        	 LD A,(NAP)
  1C2A  2AA063        	 LD HL,(TDP)
  1C2D  CD4C21        	 CALL DMSAN1
  1C30  C38021        	 JP THPDWN
  1C33                	BMAGIC:
  1C33  CD9510        	 CALL MANMGB
  1C36  30C2          	 JR NC,BTMLP
  1C38  C37F1C        	 JP TTURN
  1C3B                	BITEM:
  1C3B  3E45          	 LD A,45H
  1C3D  CDBC06        	 CALL MANITM+1
  1C40  30B8          	 JR NC,BTMLP
  1C42  CD2924        	 CALL BTACT1
  1C45  C37F1C        	 JP TTURN
  1C48                	BESKP:
  1C48  3AA463        	 LD A,(BF)
  1C4B  17            	 RLA
  1C4C  381D          	 JR C,NTESKP
  1C4E  3A5A62        	 LD A,(LV)
  1C51  B7            	 OR A
  1C52  1F            	 RRA
  1C53  47            	 LD B,A
  1C54  CD8C1B        	 CALL RAND4
  1C57  2A9663        	 LD HL,(TNO)
  1C5A  80            	 ADD A,B
  1C5B  BD            	 CP L
  1C5C  380D          	 JR C,NTESKP
  1C5E                	ESKP:
  1C5E  3E54          	 LD A,54H
  1C60  32F800        	 LD (0F8H),A
  1C63  3AA463        	 LD A,(BF)
  1C66  17            	 RLA
  1C67  D8            	 RET C
  1C68  C3EA01        	 JP START
  1C6B                	NTESKP:
  1C6B  21791C        	 LD HL,ESKPM
  1C6E  0E06          	 LD C,6
  1C70  CD8D19        	 CALL MSOBP
  1C73  CD3617        	 CALL TIMBTL
  1C76  C37F1C        	 JP TTURN
  1C79                	ESKPM:
  1C79  BCAFCADFB220  	 DB "ｼｯﾊﾟｲ "
  1C7F                	TTURN:
  1C7F  CD3A17        	 CALL TIM30
  1C82  CD1B20        	 CALL TNAMEP
  1C85  219B1C        	 LD HL,TAITBL
  1C88  3A9E63        	 LD A,(TAI)
  1C8B  3D            	 DEC A
  1C8C                	TMAGCL:
  1C8C  07            	 RLCA
  1C8D  5F            	 LD E,A
  1C8E  1600          	 LD D,0
  1C90  19            	 ADD HL,DE
  1C91  5E            	 LD E,(HL)
  1C92  23            	 INC HL
  1C93  56            	 LD D,(HL)
  1C94  EB            	 EX DE,HL
  1C95  E5            	 PUSH HL
  1C96  CD8C1B        	 CALL RAND4
  1C99  E1            	 POP HL
  1C9A  E9            	 JP (HL)
  1C9B                	TAITBL:
  1C9B  BB1CCF1CFC1C03	 DW AI1,AI2,AI3,AI4,AI5,AI6,AI7,AI8
  1CAB  301D3A1D451D50	 DW AI9,AIA,AIB,AIC,AID,AIE,AIF,ai10
  1CBB                	AI1:;ｽｹﾙﾄﾝ,ﾀﾞｲｼﾞｬ,ﾉﾛｲﾉｹﾝ;攻撃
  1CBB  213C20        	 LD HL,ALSATC+6
  1CBE  0E06          	 LD C,6
  1CC0  CD8D19        	 CALL MSOBP
  1CC3  3A9F63        	 LD A,(TAP)
  1CC6  2AA263        	 LD HL,(NDP)
  1CC9  CD4C21        	 CALL DMSAN1
  1CCC  C3B621        	 JP AHPDWN
  1CCF                	AI2:;ｸﾞｰﾙ,ﾋﾄｸｲｸｻ	;吸血攻撃
  1CCF  21F01C        	 LD HL,AI2M
  1CD2  0E0C          	 LD C,12
  1CD4  CD8D19        	 CALL MSOBP
  1CD7  3A9F63        	 LD A,(TAP)
  1CDA  2AA263        	 LD HL,(NDP)
  1CDD  CD4C21        	 CALL DMSAN1
  1CE0  F5            	 PUSH AF
  1CE1  2A9D63        	 LD HL,(THP)
  1CE4  85            	 ADD A,L
  1CE5  3002          	 jr nc,ai2l
  1CE7  3EFF          	 ld A,255
  1CE9                	ai2l:
  1CE9  329D63        	 LD (THP),A
  1CEC  F1            	 POP AF
  1CED  C3B621        	 JP AHPDWN
  1CF0                	AI2M:
  1CF0  C9B7ADB3B9C2BA	 DB "ﾉｷｭｳｹﾂ","ｺｳｹﾞｷ!"
  1CFC                	AI3:;ﾉｰﾄﾙ		;ﾎﾞｳ,ｺｳｹﾞｷ
  1CFC  FE02          	 CP 2
  1CFE  38BB          	 JR C,AI1
  1D00  C3061E        	 JP TBOH		;ﾎﾙﾄﾞ,ｺｳｹﾞｷ
  1D03                	AI4:;ｲｱﾘｽ
  1D03  FE02          	 CP 2
  1D05  38B4          	 JR C,AI1
  1D07  C3151E        	 JP THOLD
  1D0A                	AI5:;ｳｨｻﾞﾄﾞ
  1D0A  B7            	 OR A
  1D0B  28AE          	 JR Z,AI1
  1D0D  C3401E        	 JP TSTOME
  1D10                	AI6:;ﾄﾞﾗｺﾞﾝ
  1D10  FE02          	 CP 2
  1D12  38A7          	 JR C,AI1
  1D14  C37A1E        	 JP TFAIR
  1D17                	AI7:;ｾｯｺｳﾏﾙ
  1D17  B7            	 OR A
  1D18  28A1          	 JR Z,AI1
  1D1A  FE02          	 CP 2
  1D1C  DAA51E        	 JP C,SEKIKA
  1D1F  CACB1E        	 JP Z,DEIN
  1D22  C3BB1C        	 JP AI1
  1D25                	AI8:;ﾒﾀﾙﾅｲﾄ
  1D25  FE02          	 CP 2
  1D27  C2EA1E        	 JP NZ,TESKP
  1D2A  C3BB1C        	 JP AI1
  1D2D  CD8C1B        	 call rand4;aic
  1D30                	AI9:;ﾋﾞｼｮﾌﾟ
  1D30  B7            	 OR A
  1D31  CACB1E        	 JP Z,DEIN
  1D34  C3071F        	 JP TBIO
  1D37  CD8C1B        	 call rand4;aic
  1D3A                	AIA:;ﾏｼﾞﾝ
  1D3A  FE02          	 CP 2
  1D3C  DA321F        	 JP C,TRENZK
  1D3F  CACF1C        	 JP Z,AI2
  1D42  C3CB1E        	 JP DEIN
  1D45                	AIB:;ｸﾛｷｼ,ﾊｲﾛｰﾄﾞ
  1D45  FE02          	 cp 2
  1D47  DA681F        	 jp c,kaisin
  1D4A  CD8C1B        	 call rand4
  1D4D  C3031D        	 jp AI4
  1D50                	AIC:;ﾛﾚﾝｽ
  1D50  FE02          	 cp 2
  1D52  DA2D1D        	 jp c,AI9-3
  1D55  CA681F        	 jp z,kaisin
  1D58  C31A1F        	 jp TREST
  1D5B                	AID:;red dragon
  1D5B  FE02          	 cp 2
  1D5D  DA8B1F        	 jp c,utfire
  1D60  C3321F        	 jp TRENZK
  1D63                	AIE:;spilit
  1D63  FE02          	 cp 2
  1D65  DABB1C        	 jp c,AI1
  1D68  FE03          	 cp 3
  1D6A  CA8B1F        	 jp z,utfire
  1D6D  C3071F        	 jp TBIO
  1D70                	AIF:;ruceful
  1D70  CD8C1B        	 call rand4
  1D73  FE02          	 cp 2
  1D75  DA321F        	 jp c,TRENZK
  1D78  C3681F        	 jp kaisin
  1D7B                	ai10:;last
  1D7B  3A9263        	 ld A,(flag+3ch)
  1D7E  17            	 rla
  1D7F  DABB1D        	 jp c,autohp
                      	
  1D82  3A9D63        	 ld A,(THP)
  1D85  FE6F          	 cp 6fh
  1D87  301F          	 jr nc,ai10l
                      	
  1D89  3EE6          	 ld A,0ffh-25
  1D8B  329F63        	 ld (TAP),A
  1D8E  C619          	 add A,25
  1D90  32A063        	 ld (TDP),A
  1D93  21CD1D        	 ld HL,ai10m
  1D96  0603          	 ld B,3
  1D98  CDC719        	 call msobr
  1D9B  3E03          	 ld A,3
  1D9D  CD1E17        	 call flash
  1DA0  CDF923        	 call shake
  1DA3  3E80          	 ld A,80h
  1DA5  329263        	 ld (flag+3ch),A
  1DA8                	ai10l:
  1DA8  CD8C1B        	 call rand4
  1DAB  B7            	 or A
  1DAC  28C2          	 jr z,AIF
  1DAE  FE01          	 cp 1
  1DB0  CA8B1F        	 jp z,utfire
  1DB3  FE02          	 cp 2
  1DB5  CACF1C        	 jp z,AI2
  1DB8  C3BF1F        	 jp flar
                      	
  1DBB                	autohp:
  1DBB  3A9D63        	 ld A,(THP)
  1DBE  4F            	 ld C,A
  1DBF  3E0A          	 ld A,10
  1DC1  81            	 add A,C
  1DC2  D2C71D        	 jp nc,ai10l2
  1DC5  3EFF          	 ld A,255
  1DC7                	ai10l2:
  1DC7  329D63        	 ld (thp),A
  1DCA  C3A81D        	 jp ai10l
  1DCD                	ai10m:
  1DCD  D4D9BCDEACB1C5	 db "ﾔﾙｼﾞｬｱ","ﾅｲｶ!  ",0f9h
  1DDA  BCB6BCDCC0BCCA	 db "ｼｶｼﾜﾀｼ","ﾊﾀｵｻﾚﾙ","ﾜｹﾆﾊ  ","ｲｶﾅｲ  ",0f9h
  1DF3  CEDDB7C3DE20B2	 db "ﾎﾝｷﾃﾞ ","ｲｸｿﾞ!!","ｱﾚｽ!!!",0f9H
                      	
                      	;-----------------ﾃｷﾉｺｳﾄﾞｳ-------------------
                      	
  1E06                	TBOH:
  1E06  21FB1F        	 LD HL,TMGLST
  1E09  CDD01F        	 CALL TMGMC
  1E0C  0E0A          	 LD C,10
  1E0E  CD8C1B        	 CALL RAND4
  1E11  81            	 ADD A,C
  1E12  C3B621        	 JP AHPDWN
  1E15                	THOLD:
  1E15  21FF1F        	 LD HL,TMGLST+4
  1E18  CDD01F        	 CALL TMGMC
  1E1B  3AA263        	 LD A,(NDP)
  1E1E  D607          	 SUB 7
  1E20  3001          	 JR NC,THOLDL
  1E22  AF            	 XOR A
  1E23                	THOLDL:
  1E23  32A263        	 LD (NDP),A
  1E26  CDF923        	 CALL SHAKE
  1E29  21341E        	 LD HL,THOLDM
  1E2C  0E0C          	 LD C,12
  1E2E  CD8919        	 CALL MSOB
  1E31  C3FA1B        	 JP BTMLP 
  1E34                	THOLDM:
  1E34  BDC3B0C0BD20C0	 DB "ｽﾃｰﾀｽ ","ﾀﾞｳﾝ! "
  1E40                	TSTOME:
  1E40  210320        	 LD HL,TMGLST+8
  1E43  CDD01F        	 CALL TMGMC
  1E46  3A6262        	 LD A,(ET)
  1E49  FE24          	 CP 24H
  1E4B  3007          	 JR NC,TSTOM2
  1E4D  CD8C1B        	 CALL RAND4
  1E50  B7            	 OR A
  1E51  CC5D1E        	 CALL Z,DOK
  1E54                	TSTOM2:
  1E54  0E15          	 LD C,21
  1E56  CD8C1B        	 CALL RAND4
  1E59  81            	 ADD A,C
  1E5A  C3B621        	 JP AHPDWN
  1E5D                	DOK:
                      	; CALL RAND4
                      	; OR A
                      	; CALL Z,DOK
  1E5D  3E01          	 LD A,1
  1E5F  326662        	 LD (ST),A
  1E62  CD1E17        	 CALL FLASH
  1E65  216E1E        	 LD HL,DOKM
  1E68  0E0C          	 LD C,12
  1E6A  CD8D19        	 CALL MSOBP
  1E6D  C9            	 RET
  1E6E                	DOKM:
  1E6E  C4DEB8A62020B3	 DB "ﾄﾞｸｦ  ","ｳｹﾀ!  "
  1E7A                	TFAIR:
  1E7A  21991E        	 LD HL,TFAIRM
  1E7D  0E0C          	 LD C,12
  1E7F  CD8D19        	 CALL MSOBP
  1E82  CDE01F        	 CALL TMGMCL
  1E85  3A6362        	 LD A,(EA)
  1E88  4F            	 ld C,A
  1E89  FE44          	 CP 44H
  1E8B  D4AE1F        	 call NC,firedw
  1E8E  79            	 ld A,C
  1E8F  CD791B        	 CALL RAND
  1E92  E60F          	 AND 00001111B
  1E94  C616          	 ADD A,22
  1E96  C3B621        	 JP AHPDWN
                      	;TFAIR1:
                      	; CALL RAND4
                      	; ADD A,10
                      	; JR DEIN1-3; JP AHPDWN
  1E99                	TFAIRM:
  1E99  CA20CEC9B5A6CA	 DB "ﾊ ﾎﾉｵｦ","ﾊｲﾀ!  "
  1EA5                	SEKIKA:
  1EA5  210720        	 LD HL,TMGLST+12
  1EA8  CDD01F        	 CALL TMGMC
  1EAB  3A6262        	 LD A,(ET)
  1EAE  FE24          	 CP 24H
  1EB0  300A          	 JR NC,SEKIKL
  1EB2  21BF1E        	 LD HL,SEKIKM
  1EB5  0E0C          	 LD C,12
  1EB7  CD8D19        	 CALL MSOBP
  1EBA  3EFF          	 LD A,255
  1EBC                	SEKIKL:
  1EBC  C3B621        	 JP AHPDWN
  1EBF                	SEKIKM:
  1EBF  B1DABDCA2020BE	 DB "ｱﾚｽﾊ  ","ｾｷｶｼﾀ "
  1ECB                	DEIN:
  1ECB  210B20        	 LD HL,TMGLST+16
  1ECE  CDD01F        	 CALL TMGMC
  1ED1  3A6362        	 LD A,(EA)
  1ED4  FE45          	 CP 45H
  1ED6  D2E31E        	 JP NC,DEIN1
  1ED9  CD791B        	 CALL RAND
  1EDC  E61F          	 AND 00011111B
  1EDE  F630          	 OR 00110000B
  1EE0  C3B621        	 JP AHPDWN
  1EE3                	DEIN1:
  1EE3  CD8C1B        	 CALL RAND4
  1EE6  C613          	 ADD A,19
  1EE8  18F6          	 JR DEIN1-3
  1EEA                	TESKP:
  1EEA  21011F        	 LD HL,TESKPM
  1EED  0E06          	 LD C,6
  1EEF  CD8919        	 CALL MSOB
  1EF2  21C828        	 LD HL,GRD2
  1EF5  CDDD25        	 CALL OPNG
  1EF8  CD5D24        	 CALL BEPBKC
  1EFB  CD3A17        	 CALL TIM30
  1EFE  C3EA01        	 JP START
  1F01                	TESKPM:
  1F01  CAC6B9DEC021  	 DB "ﾊﾆｹﾞﾀ!"
  1F07                	TBIO:
  1F07  210F20        	 LD HL,TMGLST+20
  1F0A  CDD01F        	 CALL TMGMC
  1F0D  CD791B        	 CALL RAND
  1F10  E65F          	 AND 01011111B
  1F12  FE2B          	 CP 43
  1F14  DC5D1E        	 CALL C,DOK
  1F17  C3B621        	 JP AHPDWN
  1F1A                	TREST:
  1F1A  211320        	 LD HL,TMGLST+24
  1F1D  CDD01F        	 CALL TMGMC
  1F20  219D63        	 LD HL,THP
  1F23  CBFE          	 SET 7,(HL)
  1F25  CBF6          	 SET 6,(HL)
  1F27  21230F        	 LD HL,HPUPMS
  1F2A  0E0C          	 LD C,12
  1F2C  CD8D19        	 CALL MSOBP
  1F2F  C3FA1B        	 JP BTMLP
  1F32                	TRENZK:;ﾚﾝｿﾞｸｺｳｹﾞｷ
  1F32  215C1F        	 LD HL,TRENZM
  1F35  0E0C          	 LD C,12
  1F37  CD8D19        	 CALL MSOBP
  1F3A  3A9F63        	 LD A,(TAP)
  1F3D  2AA263        	 LD HL,(NDP)
  1F40  CD4C21        	 CALL DMSAN1
  1F43  F5            	 PUSH AF
  1F44  CD8C1B        	 CALL RAND4
  1F47  47            	 LD B,A
  1F48  04            	 INC B
  1F49  F1            	 POP AF
  1F4A  4F            	 LD C,A
  1F4B  AF            	 XOR A
  1F4C                	TRENLP:
  1F4C  C5            	 PUSH BC
  1F4D  F5            	 PUSH AF
  1F4E  CDF923        	 CALL SHAKE
  1F51  CD3A17        	 CALL TIM30
  1F54  F1            	 POP AF
  1F55  C1            	 POP BC
  1F56  81            	 ADD A,C
  1F57  10F3          	 DJNZ TRENLP
  1F59  C3B621        	 JP AHPDWN
  1F5C                	TRENZM:
  1F5C  C9DADDBFDEB8BA	 DB "ﾉﾚﾝｿﾞｸ","ｺｳｹﾞｷ!"
  1F68                	kaisin:
  1F68  217F1F        	 LD HL,tkaism
  1F6B  0E0C          	 LD C,12
  1F6D  CD8D19        	 CALL MSOBP
  1F70  3A9F63        	 LD A,(TAP)
  1F73  2AA263        	 LD HL,(NDP)
  1F76  CD4C21        	 CALL DMSAN1
  1F79  4F            	 ld C,A
  1F7A  17            	 rla
  1F7B  81            	 add A,C	;*3
  1F7C  C3B621        	 JP AHPDWN
  1F7F                	tkaism:
  1F7F  C9BAB3B9DEB7B8	 db "ﾉｺｳｹﾞｷ","ｸﾘﾃｨｶﾙ"
  1F8B                	utfire:
  1F8B  21B31F        	 ld HL,utfirm
  1F8E  0E0C          	 ld C,12
  1F90  CDDD1F        	 call TMGMCL-3
  1F93  0E7C          	 ld C,124
  1F95  CD8C1B        	 call rand4
  1F98  81            	 add A,C
  1F99  4F            	 ld C,A
  1F9A  3A6262        	 ld A,(ET)
  1F9D  FE24          	 cp 24h
  1F9F  D4AE1F        	 call nc,firedw
  1FA2  3A6362        	 ld A,(EA)
  1FA5  FE44          	 cp 44h
  1FA7  D4AE1F        	 call nc,firedw
  1FAA  79            	 ld A,C
  1FAB  C3B621        	 jp AHPDWN
  1FAE                	firedw:
  1FAE  79            	 ld A,C
  1FAF  D616          	 sub 22
  1FB1  4F            	 ld C,A
  1FB2  C9            	 ret
  1FB3                	utfirm:
  1FB3  C9CAB9DEBCB2CE	 db "ﾉﾊｹﾞｼｲ","ﾎﾉｵ!!!"
  1FBF                	flar:
  1FBF  211720        	 LD HL,TMGLST+28
  1FC2  CDD01F        	 CALL TMGMC
  1FC5  0E6E          	 LD C,110
  1FC7  CD791B        	 CALL RAND
  1FCA  E60F          	 and 00001111b
  1FCC  81            	 add A,C
  1FCD  C3B621        	 JP AHPDWN
                      	 
                      	
                      	
                      	
  1FD0                	TMGMC:
  1FD0  11EF1F        	 LD DE,TMGMCM+6
  1FD3  010400        	 LD BC,4
  1FD6  EDB0          	 LDIR
  1FD8  21E91F        	 LD HL,TMGMCM
  1FDB  0E12          	 LD C,18
  1FDD  CD8D19        	 CALL MSOBP
  1FE0                	TMGMCL:
  1FE0  3E03          	 LD A,3
  1FE2  CD1E17        	 CALL FLASH
  1FE5  CD3617        	 CALL TIMBTL
  1FE8  C9            	 RET
  1FE9                	TMGMCM:
  1FE9  CA202020202020	 DB "ﾊ     ","      ","ｦﾂｶｯﾀ!"
  1FFB                	TMGLST:
  1FFB  CEDEB320CED9C4	 DB "ﾎﾞｳ ","ﾎﾙﾄﾞ","ｽﾄｰﾑ","ﾌﾞﾚｸ","ﾃﾞｲﾝ","ﾊﾞｲｵ","ﾚｽﾄｱ","ﾌﾚｱ!"
                      	    ;ｺｳｹﾞｷ,ｷｭｳｹﾂ,ﾎﾉｵ,ﾎﾝｷ!,ﾚﾝｿﾞｸｺｳｹﾞｷ
                      	
                      	;-----------------BATTLE処理-------------------
                      	
  201B                	TNAMEP:
  201B  219763        	 LD HL,TNNAME
  201E  0E06          	 LD C,6
  2020  CD8D19        	 CALL MSOBP
  2023  C9            	 RET
  2024                	BATTLM:
  2024  B6DE20202020B1	 DB "ｶﾞ    ","ｱﾗﾜﾚﾀ!","      "
  2036                	ALSATC:
  2036  B1DABD202020C9	 DB "ｱﾚｽ   ","ﾉｺｳｹﾞｷ"
  2042  C620202020C9C0	 DB "ﾆ    ﾉ","ﾀﾞﾒｰｼﾞ"
  204E                	BATLCM:
  204E  20BAB3B9DEB720	 DB " ｺｳｹﾞｷ"," ﾏﾎｳ  "," ｱｲﾃﾑ "," ﾄｳｿｳ "
  2066  A6C0B5BCC021B1	 DB "ｦﾀｵｼﾀ!","ｱﾚｽﾊ  ","ﾁｶﾗﾂｷﾃ","ｼﾏｯﾀ･･"
  207E                	TNAME:
  207E  BDB9D9C4DD20B8	 DB "ｽｹﾙﾄﾝ ","ｸﾞｰﾙ  ","ﾉﾛｲﾉｹﾝ","ﾋﾄｸｲｸｻ","ﾀﾞｲｼﾞｬ";2f
  209C  C9B0C4D92020B3	 DB "ﾉｰﾄﾙ  ","ｳｲｻﾞﾄﾞ","ｸﾞﾘﾌｫﾝ","ﾄﾞﾗｺﾞﾝ","ﾗﾌﾚｼｱﾝ";7f
  20BA  C4DBD9202020D2	 DB "ﾄﾛﾙ   ","ﾒﾀﾙﾅｲﾄ","ﾋﾞｼｮﾌﾟ","ﾏｼﾞﾝ  ","ﾚｯﾄﾞD ";12f
  20D8  D0D7B0C5B2C4BD	 db "ﾐﾗｰﾅｲﾄ","ｽﾋﾟﾘｯﾄ","ﾙｼﾌﾙ  ";15f
  20EA                	TPDATA:;THP,TAI,TAP,TDP
  20EA  0F011701      	 DB 15,1,23,1	;ｽｹﾙﾄﾝ
  20EE  14021905      	 DB 20,2,25,5	;ｸﾞｰﾙ
  20F2  0F011A01      	 DB 15,1,26,1	;ﾉﾛｲﾉｹﾝ
  20F6  1E021C0A      	 DB 30,2,28,10	;ﾋﾄｸｲｸｻ
  20FA  23012C0C      	 DB 35,1,44,12	;ﾀﾞｲｼﾞｬ2
  20FE  3203370B      	 DB 50,3,55,11	;ﾉｰﾄﾙ3
  2102  3A05411A      	 DB 58,5,65,26	;ｳｨｻﾞﾄﾞ4
  2106  4B015023      	 DB 75,1,80,35	;ｸﾞﾘﾌｫﾝ5
  210A  5A066E1A      	 DB 90,6,110,26	;ﾄﾞﾗｺﾞﾝ6
  210E  3D026E1E      	 DB 61,2,110,30	;ﾗﾌﾚｼｱﾝ7
  2112  9601A01E      	 DB 150,1,160,30;ﾄﾛﾙ8
  2116  1C088CFF      	 DB 28,8,140,255;ﾒﾀﾅｲﾄ9
  211A  BE09000A      	 DB 190,9,0,10	;ﾋﾞｼｮﾌﾟ10
  211E  960A9B82      	 DB 150,0ah,155,130;ﾏｼﾞﾝ11
  2122  AA0DA564      	 DB 170,0dh,165,100;ﾚｯﾄﾞD12
  2126  B40BB464      	 DB 180,0bh,180,100;ﾐﾗｰﾅｲﾄ13
  212A  500EE1FF      	 DB 80,0eh,225,255;ｽﾋﾟﾘｯﾄ14
  212E  FF0FB47F      	 DB 255,0fh,180,127;ﾙｼﾌﾙ15
                      	
                      	;-------------算術---------------
                      	
  2132                	XSAN:
  2132  B7            	 OR A
  2133  C8            	 RET Z
  2134                	XSANL:
  2134  19            	 ADD HL,DE
  2135  3D            	 DEC A
  2136  20FC          	 JR NZ,XSANL
  2138  C9            	 RET
  2139                	WSAN:
  2139  B7            	 OR A
  213A  C8            	 RET Z
  213B  010000        	 LD BC,0
  213E  1600          	 LD D,0
  2140  5F            	 LD E,A
  2141  B7            	 OR A
  2142                	WSAN1:
  2142  ED52          	 SBC HL,DE
  2144  3803          	 JR C,WSANE
  2146  03            	 INC BC
  2147  18F9          	 JR WSAN1
  2149                	WSANE:
  2149  C5            	 PUSH BC
  214A  E1            	 POP HL
  214B  C9            	 RET
                      	
                      	;-------------ﾀﾞﾒｰｼﾞ算術---------------
                      	
  214C                	DMSAN1:;A=AT L=DP
  214C  CB3F          	 SRL A
  214E  CB3D          	 SRL L
  2150  CB3D          	 SRL L
  2152  F5            	 PUSH AF
  2153  E5            	 PUSH HL
  2154  CD8C1B        	 CALL RAND4
  2157  E1            	 POP HL
  2158  85            	 ADD A,L
  2159  6F            	 LD L,A
  215A  F1            	 POP AF
  215B  95            	 SUB L
  215C  3001          	 JR NC,DMS1
  215E  AF            	 XOR A
  215F                	DMS1:;返り値A
  215F  C9            	 RET
  2160                	BKRIT:
  2160  CD791B        	 CALL RAND
  2163  FE28          	 CP 28H
  2165  78            	 LD A,B
  2166  D0            	 RET NC
  2167  F5            	 PUSH AF
  2168  217A21        	 LD HL,BKRITM
  216B  0E06          	 LD C,6
  216D  CD8D19        	 CALL MSOBP
  2170  F1            	 POP AF
  2171  E1            	 POP HL	;ST
  2172  E1            	 POP HL	;DAMY AF
  2173  17            	 RLA
  2174  3016          	 JR NC,THPDW2
  2176  3EFF          	 LD A,255
  2178  1812          	 JR THPDW2
  217A                	BKRITM:
  217A  B8D8C3A8B6D9  	 DB "ｸﾘﾃｨｶﾙ"
  2180                	THPDWN:;A=DMG
  2180  E5            	 PUSH HL
  2181  F5            	 PUSH AF
  2182  47            	 LD B,A
  2183  3A6162        	 LD A,(ES)
  2186  FE15          	 CP 15H
  2188  CC6021        	 CALL Z,BKRIT
  218B  F1            	 POP AF
  218C                	THPDW2:
  218C  E1            	 POP HL
  218D  6F            	 LD L,A
  218E  2600          	 LD H,0
  2190  4F            	 LD C,A
  2191  3A9D63        	 LD A,(THP)
  2194  91            	 SUB C
  2195  2854          	 JR Z,TOVER
  2197  3852          	 JR C,TOVER
  2199  329D63        	 LD (THP),A
  219C  CDA723        	 CALL BTASCN
  219F  CD3A24        	 CALL BEPDMC
  21A2  CD1524        	 CALL TSHAKE
  21A5  CD1B20        	 CALL TNAMEP
  21A8  214220        	 LD HL,ALSATC+12
  21AB  0E0C          	 LD C,12
  21AD  CD8D19        	 CALL MSOBP
  21B0  CD3E17        	 CALL TIM255
  21B3  C37F1C        	 JP TTURN
  21B6                	AHPDWN:;A=DMG
  21B6  6F            	 LD L,A
  21B7  2600          	 LD H,0
  21B9  4F            	 LD C,A
  21BA  3A5B62        	 LD A,(HP)
  21BD  91            	 SUB C
  21BE  2845          	 JR Z,AOVER
  21C0  3843          	 JR C,AOVER
  21C2  325B62        	 LD (HP),A
  21C5  CDA723        	 CALL BTASCN
  21C8  CD3A24        	 CALL BEPDMC
  21CB  CDF923        	 CALL SHAKE
  21CE  3E6E          	 LD A,110
  21D0  CD4017        	 CALL TIMER
  21D3  213620        	 LD HL,ALSATC
  21D6  0E06          	 LD C,6
  21D8  CD8D19        	 CALL MSOBP
  21DB  214220        	 LD HL,ALSATC+12
  21DE  0E0C          	 LD C,12
  21E0  CD8D19        	 CALL MSOBP
  21E3  3EE6          	 LD A,230
  21E5  CD4017        	 CALL TIMER
  21E8  C3FA1B        	 JP BTMLP
  21EB                	TOVER:
  21EB  CD3A24        	 CALL BEPDMC
  21EE  CD1524        	 CALL TSHAKE
  21F1  21C828        	 LD HL,GRD2
  21F4  CDDD25        	 CALL OPNG
  21F7  CD1B20        	 CALL TNAMEP
  21FA  216620        	 LD HL,BATLCM+24
  21FD  0E06          	 LD C,6
  21FF  CD8919        	 CALL MSOB
  2202  C32C22        	 JP EXPGET
  2205                	AOVER:
  2205  CD3A24        	 CALL BEPDMC
  2208  CDF923        	 CALL SHAKE
  220B  3EDC          	 LD A,220
  220D  CD4017        	 CALL TIMER
  2210  3EA7          	 LD A,0A7H
  2212  D340          	 OUT (40H),A
  2214  3EDC          	 LD A,220
  2216  CD4017        	 CALL TIMER
  2219  216C20        	 LD HL,BATLCM+30
  221C  0E12          	 LD C,18
  221E  CD8919        	 CALL MSOB
  2221  3AA463        	 LD A,(BF)
  2224  17            	 RLA
  2225  DA2922        	 JP C,RETRET
  2228  C9            	 RET
  2229                	RETRET:
  2229  00            	 NOP
  222A  F1            	 POP AF
  222B  C9            	 RET
                      	
                      	;----------------経験値-------------------
                      	
  222C                	EXPGET:
  222C  215F23        	 LD HL,EXGT
  222F  3AA463        	 LD A,(BF)
  2232  17            	 RLA
  2233  DC0923        	 CALL C,EXPB
  2236  3A9663        	 LD A,(TNO)
  2239  110400        	 LD DE,4
  223C  CD3221        	 CALL XSAN
  223F  4E            	 LD C,(HL)
  2240  23            	 INC HL
  2241  46            	 LD B,(HL)
  2242  23            	 INC HL
  2243  5E            	 LD E,(HL)
  2244  23            	 INC HL
  2245  56            	 LD D,(HL)
  2246  2A7662        	 LD HL,(G)
  2249  19            	 ADD HL,DE
  224A  3003          	 JR NC,GGET
  224C  21FFFF        	 LD HL,0FFFFH
  224F                	GGET:
  224F  227662        	 LD (G),HL
  2252  2A7862        	 LD HL,(EXP)
  2255  09            	 ADD HL,BC
  2256  3003          	 JR NC,EXGET
  2258  21FFFF        	 LD HL,0FFFFH
  225B                	EXGET:
  225B  227862        	 LD (EXP),HL
  225E  CD6422        	 CALL EXPC
  2261  C35E1C        	 JP ESKP
  2264                	EXPC:
  2264  3A5A62        	 LD A,(LV)
  2267  F5            	 PUSH AF
  2268  3D            	 DEC A
  2269  212523        	 LD HL,EXPCT
  226C  110200        	 LD DE,2
  226F  CD3221        	 CALL XSAN
  2272  C1            	 POP BC
  2273  3E1E          	 LD A,30
  2275  90            	 SUB B
  2276  C8            	 RET Z
  2277  47            	 LD B,A
  2278                	EXLOOP:
  2278  C5            	 PUSH BC
  2279  5E            	 LD E,(HL)
  227A  23            	 INC HL
  227B  56            	 LD D,(HL)
  227C  23            	 INC HL
  227D  E5            	 PUSH HL
  227E  2A7862        	 LD HL,(EXP)
  2281  B7            	 OR A
  2282  ED52          	 SBC HL,DE
  2284  3861          	 JR C,EXPEND
  2286  CD3424        	 CALL BEPMGC
  2289  210D23        	 LD HL,EXUPM
  228C  0E0C          	 LD C,12
  228E  CD8919        	 CALL MSOB
  2291  3A5A62        	 LD A,(LV)
  2294  3C            	 INC A
  2295  325A62        	 LD (LV),A
  2298  FE05          	 CP 5
  229A  284E          	 JR Z,MAGCIN
  229C  FE0A          	 CP 10
  229E  284A          	 JR Z,MAGCIN
  22A0  FE0F          	 CP 15
  22A2  2846          	 JR Z,MAGCIN
  22A4  FE14          	 CP 20
  22A6  2842          	 JR Z,MAGCIN
  22A8  FE19          	 CP 25
  22AA  283E          	 JR Z,MAGCIN
  22AC  FE1E          	 CP 30
  22AE  283A          	 JR Z,MAGCIN
  22B0                	EXMGRP:
  22B0  3A5F62        	 LD A,(AP)
  22B3  0E02          	 LD C,2
  22B5  81            	 ADD A,C
  22B6  325F62        	 LD (AP),A
  22B9  3A6462        	 LD A,(EAP)
  22BC  81            	 ADD A,C
  22BD  326462        	 LD (EAP),A
  22C0  3A6062        	 LD A,(DP)
  22C3  81            	 ADD A,C
  22C4  326062        	 LD (DP),A
  22C7  3A6562        	 LD A,(EDP)
  22CA  81            	 ADD A,C
  22CB  326562        	 LD (EDP),A
  22CE  3A5C62        	 LD A,(MHP)
  22D1  C608          	 ADD A,8
  22D3  3002          	 JR NC,EXUP1
  22D5  3EFF          	 LD A,0FFH
  22D7                	EXUP1:
  22D7  325C62        	 LD (MHP),A
  22DA  3A5E62        	 LD A,(MMP)
  22DD  C607          	 ADD A,7
  22DF  325E62        	 LD (MMP),A
  22E2  E1            	 POP HL
  22E3  C1            	 POP BC
  22E4  1092          	 DJNZ EXLOOP
  22E6  C9            	 RET
  22E7                	EXPEND:
  22E7  F1            	 POP AF
  22E8  E1            	 POP HL
  22E9  C9            	 RET
  22EA                	MAGCIN:
  22EA  3A7A62        	 LD A,(MG)
  22ED  37            	 SCF
  22EE  17            	 RLA
  22EF  CB7F          	 BIT 7,A
  22F1  C40423        	 CALL NZ,MGTUIN
  22F4  327A62        	 LD (MG),A
  22F7  CD3424        	 CALL BEPMGC
  22FA  211923        	 LD HL,EXUPM+12
  22FD  0E0C          	 LD C,12
  22FF  CD8919        	 CALL MSOB
  2302  18AC          	 JR EXMGRP
  2304                	MGTUIN:
  2304  F640          	 OR 01000000B
  2306  E67F          	 AND 01111111B
  2308  C9            	 RET
  2309                	EXPB:
  2309  212E60        	 LD HL,EXGTB
  230C  C9            	 RET
  230D                	EXPBRP:
  230D                	EXUPM:
  230D  DACDDED9B6DEB1	 DB "ﾚﾍﾞﾙｶﾞ","ｱｶﾞｯﾀ!"
  2319  CFCEB3A62020B5	 DB "ﾏﾎｳｦ  ","ｵﾎﾞｴﾀ!"
  2325                	EXPCT:
  2325  050019003C006E	 DW 5,25,60,110,190,300,525,730,955
  2337  E2044A06C00828	 DW 1250,1610,2240,3880,5405,7610,9400,11800,14000,16780
  234B  2C4CE45770623C	 DW 19500,22500,25200,29500,33400,38000,43905,49000,55500,65535
  235F                	EXGT:
  235F  03000500040008	 DW 3,5,4,8,5,11,6,14,8,35		;5
  2373  0C004B001C003C	 DW 12,75,28,60,65,100,85,230,131,415	;10
  2387  AA002C01E10439	 DW 170,300,1249,2105,255,508,342,426	;14
  2397  C50165011A02F4	 dw 453,357,538,500,610,150		;17
  23A3  62029600      	 dw 610,150				;18
                      	
                      	; DB "ｽｹﾙﾄﾝ ","ｸﾞｰﾙ  ","ﾉﾛｲﾉｹﾝ","ﾋﾄｸｲｸｻ","ﾀﾞｲｼﾞｬ";5
                      	; DB "ﾉｰﾄﾙ  ","ｳｲｻﾞﾄﾞ","ｸﾞﾘﾌｫﾝ","ﾄﾞﾗｺﾞﾝ","ﾗﾌﾚｼｱﾝ";10
                      	; DB "ﾄﾛﾙ   ","ﾒﾀﾙﾅｲﾄ","ﾋﾞｼｮﾌﾟ","ﾏｼﾞﾝ  ","ﾚｯﾄﾞD ";15
                      	; db "ﾐﾗｰﾅｲﾄ","ｽﾋﾟﾘｯﾄ","ﾙｼﾌﾙ  "			 ;18
                      	
                      	;--------------ﾊﾞﾄﾙOUTPORT----------------
                      	
  23A7                	BTASCN:
  23A7  CDD619        	 CALL ASCN
  23AA  21D319        	 LD HL,NMEMRY+2
  23AD  010300        	 LD BC,3
  23B0  114320        	 LD DE,ALSATC+13
  23B3  EDB0          	 LDIR
  23B5  C9            	 RET
  23B6                	TGRO:
  23B6  3AA463        	 LD A,(BF)
  23B9  17            	 RLA
  23BA  382D          	 JR C,TGROB
  23BC  21C538        	 LD HL,TGR
  23BF  3A9663        	 LD A,(TNO)
  23C2  114800        	 LD DE,72
  23C5  CD3221        	 CALL XSAN
  23C8                	OPNG2:
  23C8  110B09        	 LD DE,090BH
  23CB  3E03          	 LD A,3
  23CD                	TGROLP:
  23CD  E5            	 PUSH HL
  23CE  D5            	 PUSH DE
  23CF  0618          	 LD B,24
  23D1  F5            	 PUSH AF
  23D2  CD8A1A        	 CALL GRP
  23D5  F1            	 POP AF
  23D6  D1            	 POP DE
  23D7  EB            	 EX DE,HL
  23D8  010800        	 LD BC,8
  23DB  09            	 ADD HL,BC
  23DC  EB            	 EX DE,HL
  23DD  E1            	 POP HL
  23DE  011800        	 LD BC,24
  23E1  09            	 ADD HL,BC
  23E2  3D            	 DEC A
  23E3  20E8          	 JR NZ,TGROLP
  23E5  CD431A        	 CALL WGRO2
  23E8  C9            	 RET
  23E9                	TGROB:
  23E9  21D53D        	 LD HL,TGRB
  23EC  117800        	 LD DE,120
  23EF  3A9663        	 LD A,(TNO)
  23F2  CD3221        	 CALL XSAN
  23F5  CDDD25        	 CALL OPNG
  23F8  C9            	 RET
  23F9                	SHAKE:
  23F9  CD5324        	 CALL BEPSKC
  23FC  E5            	 PUSH HL
  23FD  C5            	 PUSH BC
  23FE  0605          	 LD B,5
  2400  C5            	 PUSH BC;LOOP
  2401  CD3A17        	 CALL TIM30
  2404  3E44          	 LD A,44H
  2406  D340          	 OUT (40H),A
  2408  CD3A17        	 CALL TIM30
  240B  3E40          	 LD A,40H
  240D  D340          	 OUT (40H),A
  240F  C1            	 POP BC
  2410  10EE          	 DJNZ SHAKE+7
  2412  C1            	 POP BC
  2413  E1            	 POP HL
  2414  C9            	 RET
  2415                	TSHAKE:
  2415  E5            	 PUSH HL
  2416  C5            	 PUSH BC
  2417  0603          	 LD B,3
  2419  C5            	 PUSH BC
  241A  21C828        	 LD HL,GRD2
  241D  CDDD25        	 CALL OPNG
  2420  CDB623        	 CALL TGRO
  2423  C1            	 POP BC
  2424  10F3          	 DJNZ TSHAKE+4
  2426  C1            	 POP BC
  2427  E1            	 POP HL
  2428  C9            	 RET
  2429                	BTACT1:
  2429  CD2A25        	 CALL GRPUT2
  242C  37            	 SCF
  242D  CD5E0F        	 CALL BTCMST
  2430  CDB623        	 CALL TGRO
  2433  C9            	 RET
                      	
                      	;-----------BEEP---------------
                      	
  2434                	BEPMGC:
  2434  21A624        	 LD HL,BEEPMG
  2437  C37324        	 JP BEEPS
  243A                	BEPDMC:
  243A  21C524        	 LD HL,BEEPDM
  243D  1834          	 JR BEEPS
  243F                	BEPDRC:
  243F  21C024        	 LD HL,BEEPDR
  2442  182F          	 JR BEEPS
  2444                	BEPBTC:
  2444  21B324        	 LD HL,BEEPBT
  2447  182A          	 JR BEEPS
  2449                	BEPISC:
  2449  21CC24        	 LD HL,BEEPIS
  244C  1825          	 JR BEEPS
  244E                	BEPMSC:
  244E  21D324        	 LD HL,BEEPMS
  2451  1820          	 JR BEEPS
  2453                	BEPSKC:
  2453  21D624        	 LD HL,BEEPSK
  2456  181B          	 JR BEEPS
  2458                	BEPWKC:
  2458  21D924        	 LD HL,BEEPWK
  245B  1816          	 JR BEEPS
  245D                	BEPBKC:
  245D  21DE24        	 LD HL,BEEPBK
  2460  1811          	 JR BEEPS
  2462                	BEPFDC:
  2462  21EF24        	 LD HL,BEEPFD
  2465  180C          	 JR BEEPS
  2467                	BEPFLC:
  2467  210A25        	 LD HL,BEEPFL
  246A  1807          	 JR BEEPS
  246C                	BEPZPC:
  246C  211B25        	 LD HL,BEEPZP
  246F  1802          	 JR BEEPS
  2471                	BEEPED:
  2471  08            	 EX AF,AF'
  2472  C9            	 RET
  2473                	BEEPS:
  2473  08            	 EX AF,AF'
  2474                	BEEP:;HL=DATA AD.	0=eof
  2474  7E            	 LD A,(HL)
  2475  B7            	 OR A
  2476  28F9          	 JR Z,BEEPED
  2478  47            	 LD B,A		;周波数
  2479  23            	 INC HL
  247A  7E            	 LD A,(HL)
  247B  4F            	 LD C,A		;音符の長さ
  247C                	BEEPL;
  247C  1E0D          	 LD E,0DH
  247E  50            	 LD D,B
  247F  15            	 DEC D
  2480  2804          	 JR Z,BEEPL1
  2482  3E80          	 LD A,80H
  2484  D318          	 OUT (18H),A
  2486  15            	BEEPL1:DEC D
                      	;DB 0,0,0,0,0,0
  2487  0000          	 DB 0,0
  2489  20FB          	 JR NZ,BEEPL1	;
  248B  50            	 LD D,B
  248C  AF            	 XOR A
  248D  D318          	 OUT (18H),A
  248F  15            	BEEPL2:DEC D
                      	;DB 0,0,0,0,0,0,0
  2490  00000000000000	 DB 0,0,0,0,0,0,0,0,0,0,0
  249B  20F2          	 JR NZ,BEEPL2
  249D  1D            	 DEC E
  249E  20DE          	 JR NZ,BEEPL+2
  24A0  0D            	 DEC C
  24A1  20D9          	 JR NZ,BEEPL
  24A3  23            	 INC HL
  24A4  18CE          	 JR BEEP
  24A6                	BEEPMG:
  24A6  B902A001960282	 DB 185,2,160,1,150,2,130,1,120,2,105,1,0
  24B3                	BEEPBT:
  24B3  B904A004960482	 DB 185,4,160,4,150,4,130,5,120,5,105,6,0
                      	;DB 210,6,170,5,120,10,0
  24C0                	BEEPDR:
  24C0  FA02D20100    	 DB 250,2,210,1,0
  24C5                	BEEPDM:
  24C5  5F035C04730400	 DB 95,3,92,4,115,4,0
  24CC                	BEEPIS:
  24CC  D20396046E0600	 DB 210,3,150,4,110,6,0
  24D3                	BEEPMS:
  24D3  A00100        	 DB 160,1,0
  24D6                	BEEPSK:
  24D6  7F0100        	 DB 127,1,0
  24D9                	BEEPWK:
  24D9  5A014A0200    	 DB 90,1,74,2,0
  24DE                	BEEPBK:
  24DE  46035A03780396	 DB 70,3,90,3,120,3,150,3,180,3,210,2,240,1,255,1,0
  24EF                	BEEPFD:
  24EF  46034B03500355	 DB 70,3,75,3,80,3,85,3,90,3,95,2,100,1,105,1,110,1,115,1,120,1,125,1,130,1,0
  250A                	BEEPFL:
  250A  F502FD02010CF5	 DB 245,2,253,2,1,12,245,2,253,2,1,12,245,2,253,2,0
  251B                	BEEPZP:
  251B  5A146E11820E96	 DB 90,20,110,17,130,14,150,13,180,25,210,22,255,65,0
                      	
                      	;-----------ﾌﾚｰﾑ---------------
                      	
  252A                	GRPUT2:
  252A  1804          	 JR GRPUT1+4
  252C                	GRPUT1:
  252C  218625        	 LD HL,GRPUTL
  252F  E5            	 PUSH HL
  2530  CD631B        	 CALL GROR
  2533  115829        	 LD DE,GROE1
  2536  012A00        	 LD BC,42
  2539  21E036        	 LD HL,MAPF1
  253C  EDB0          	 LDIR
  253E  11E829        	 LD DE,GROE2
  2541  0E06          	 LD C,6
  2543  210A37        	 LD HL,MAPF2L
  2546  EDB0          	 LDIR
  2548  110C2A        	 LD DE,GROE2+36
  254B  0E06          	 LD C,6
  254D  211037        	 LD HL,MAPF2R
  2550  EDB0          	 LDIR
  2552  11782A        	 LD DE,GROE3
  2555  3E03          	 LD A,3
  2557                	LOOP2:
  2557  012A00        	 LD BC,42
  255A  21E829        	 LD HL,GROE2
  255D  EDB0          	 LDIR
  255F  216600        	 LD HL,102
  2562  19            	 ADD HL,DE
  2563  EB            	 EX DE,HL
  2564  3D            	 DEC A
  2565  20F0          	 JR NZ,LOOP2
  2567  11282C        	 LD DE,GROE6
  256A  0E2A          	 LD C,42
  256C  211637        	 LD HL,MAPF3
  256F  EDB0          	 LDIR
  2571  11B729        	 LD DE,GROE1+95
  2574  0E2E          	 LD C,46
  2576  214337        	 LD HL,MESF1
  2579  EDB0          	 LDIR
  257B  11872C        	 LD DE,GROE6+95
  257E  0E2E          	 LD C,46
  2580  217737        	 LD HL,MESF3
  2583  EDB0          	 LDIR
  2585  C9            	 RET
  2586                	GRPUTL:
  2586  CD6B1A        	 CALL GRO2
  2589  C9            	 RET
                      	
                      	;----------OPENING---------------
                      	
  258A                	OPN:
  258A  CD0919        	 CALL MCLEAR
  258D  CD2C25        	 CALL GRPUT1
  2590  3E03          	 LD A,3
  2592                	OPML:
  2592  F5            	 PUSH AF
  2593  21D525        	 LD HL,OPCM
  2596  E5            	 PUSH HL
  2597  FE02          	 CP 2
  2599  280F          	 JR Z,OP2
  259B  301A          	 JR NC,OP1
  259D                	OP3:
  259D  21E426        	 LD HL,OPG3
  25A0  CDDD25        	 CALL OPNG
  25A3  217C28        	 LD HL,OPM3
  25A6  0603          	 LD B,3
  25A8  1818          	 JR OP1L
  25AA                	OP2:
  25AA  216C26        	 LD HL,OPG2
  25AD  CDDD25        	 CALL OPNG
  25B0  21BC27        	 LD HL,OPM2
  25B3  0608          	 LD B,8
  25B5  180B          	 JR OP1L
  25B7                	OP1:
  25B7  21F425        	 LD HL,OPG1
  25BA  CDDD25        	 CALL OPNG
  25BD  215C27        	 LD HL,OPM1
  25C0  0604          	 LD B,4
  25C2                	OP1L:
  25C2  C5            	 PUSH BC
  25C3  E5            	 PUSH HL
  25C4  0E18          	 LD C,24
  25C6  CD8919        	 CALL MSOB	;MSO2
  25C9  CD511A        	 CALL GRO
  25CC  E1            	 POP HL
  25CD  111800        	 LD DE,24
  25D0  19            	 ADD HL,DE
  25D1  C1            	 POP BC
  25D2  10EE          	 DJNZ OP1L
  25D4  C9            	 RET
  25D5                	OPCM:
  25D5  F1            	 POP AF
  25D6  3D            	 DEC A
  25D7  C29225        	 JP NZ,OPML
  25DA  C3EA01        	 JP START
  25DD                	OPNG:
  25DD  11EE29        	 LD DE,GROE2+6
  25E0  3E04          	 LD A,4
  25E2  011E00        	 LD BC,30	;LOOP
  25E5  EDB0          	 LDIR
  25E7  017200        	 LD BC,114
  25EA  EB            	 EX DE,HL
  25EB  09            	 ADD HL,BC
  25EC  EB            	 EX DE,HL
  25ED  3D            	 DEC A
  25EE  20F2          	 JR NZ,OPNG+5
  25F0  CD431A        	 CALL WGRO2
  25F3  C9            	 RET
  25F4                	OPG1:
  25F4  00102828281000	 DB 00,10H,28H,28H,28H,10H,00,80H,0F8H,5CH,0F8H,00,00,10H,0FCH,28H,14H,1EH
  2606  000000C8940800	 DB 00,00,00,0C8H,94H,08,00,10H,28H,28H,10H,00
  2612  2AFEA26662B66A	 DB 2AH,0FEH,0A2H,66H,62H,0B6H,6AH,7FH,0A8H,3DH,2FH,0F4H,27H,2DH
  2620  F53F24F8B8ECFC	 DB 0F5H,3FH,24H,0F8H,0B8H,0ECH,0FCH,7FH,0EFH,0FCH,0BCH,0ECH,0B4H,0F8H,40H,0C0H
  2630  A9BFB3DDB37F7F	 DB 0A9H,0BFH,0B3H,0DDH,0B3H,7FH,7FH,0D3H,7FH,71H,0DDH,71H,0B1H,59H,0BDH
  263F  753F11DB153F51	 DB 75H,3FH,11H,0DBH,15H,3FH,51H,9FH,0C2H,3FH,97H,4EH,0F4H,4FH,0DEH
  264E  081E2E58AF484B	 DB 08,1EH,2EH,58H,0AFH,48H,4BH,4FH,81H,81H,1FH,75H,0CAH,0B7H,58H,0A0H,41H
  265F  9800001C638F30	 DB 98H,00,00,1CH,63H,8FH,30H,0A0H,6FH,68H,5CH,4CH,58H
  266C                	OPG2:
  266C  80F0F0F0F8787C	 DB 80H,0F0H,0F0H,0F0H,0F8H,78H,7CH,70H,78H,78H,38H,3CH,0B4H,0B0H
  267A  C0E0C0C0E6F676	 DB 0C0H,0E0H,0C0H,0C0H,0E6H,0F6H,76H,76H,77H,7FH,67H,27H,0FH,0FH,0FH,0DH
  268A  357DFDFDF0F032	 DB 35H,7DH,0FDH,0FDH,0F0H,0F0H,32H,36H,06H,07H,0FH,1FH,1FH,1FH
  2698  1F1F1F7F7E7E7E	 DB 1FH,1FH,1FH,7FH,7EH,7EH,7EH,3FH,3FH,3FH,3FH,3FH,3FH,3FH,06,06
  26A8  0000000000C070	 DB 00,00,00,00,00,0C0H,70H,0F8H,0EEH,0AEH,0BAH,0EAH,0BAH,0EAH,0BEH
  26B7  EEBEEABAEABAAE	 DB 0EEH,0BEH,0EAH,0BAH,0EAH,0BAH,0AEH,0EEH,0F8H,70H,0C0H,00,00,00,00
  26C6  A02020B8140715	 DB 0A0H,20H,20H,0B8H,14H,07H,15H,06H,15H,86H,15H,06H,15H,16H,35H
  26D5  36351695861506	 DB 36H,35H,16H,95H,86H,15H,06H,15H,06H,95H,07H,14H,38H,0A0H,20H
  26E4                	OPG3:
  26E4  00008080C04042	 DB 00,00,80H,80H,0C0H,40H,42H,46H,4AH,5AH,0E2H,82H,04,08,10H
  26F3  F814A27D1B79C0	 DB 0F8H,14H,0A2H,7DH,1BH,79H,0C0H,20H,0D0H,30H,90H,80H,80H,00,00
  2702  0006C72199CD47	 DB 00,06,0C7H,21H,99H,0CDH,47H,0CCH,20H,18H,04,0E5H,63H,58H,70H
  2711  71624758983823	 DB 71H,62H,47H,58H,98H,38H,23H,0EEH,6FH,2BH,79H,0D4H,0B7H,20H,60H
  2720  00000F02010000	 DB 00,00,0FH,02,01,00,00,3FH,18H,64H,9FH,15H,0AH,00H,60H,40H,0AH
  2731  159D611E0C3F00	 DB 15H,9DH,61H,1EH,0CH,3FH,00,00,00,00,00,01,01
  273E  0040E0504828A8	 DB 00,40H,0E0H,50H,48H,28H,0A8H,68H,28H,0A8H,0A9H,6EH,7AH,0F5H,0ADH
  274D  F57A6EA9A82868	 DB 0F5H,7AH,6EH,0A9H,0A8H,28H,68H,0A8H,28H,48H,50H,0E0H,40H,00,00
                      	
                      	
                      	
  275C                	OPM1:
  275C  BABACA202020B5	 DB "ｺｺﾊ   ","ｵｳｺﾞﾝﾉ","ｸﾆ    ","ﾊｳﾚﾝｺｸ"
  2774  BAC9CFC1C920CB	 DB "ｺﾉﾏﾁﾉ ","ﾋﾄﾋﾞﾄﾊ","ﾏｼﾞﾒﾃﾞ","ﾔｻｼｸ､ "
  278C  CBC4CBDEC4B6DE	 DB "ﾋﾄﾋﾞﾄｶ","ﾞﾀｶﾞｲﾆ","ｻｻｴｱｯﾃ","ｲｷﾃｲﾙ "
  27A4  C4BADBB6DE20BA	 DB "ﾄｺﾛｶﾞ ","ｺﾉﾏﾁﾉ ","ﾁｭｳｽｳﾉ","ｼﾝﾃﾞﾝﾆ"
  27BC                	OPM2:
  27BC  BCDEACB1B8C5CB	 DB "ｼﾞｬｱｸﾅ","ﾋｶﾘｶﾞ ","ﾌﾘｿｿｷﾞ","ｿｼﾃ･･･"
  27D4  BCDDC3DEDDC9B6	 DB "ｼﾝﾃﾞﾝﾉ","ｶｸﾃﾞｱﾙ","ｵｰﾌﾞｶﾞ","ｳｼﾅﾜﾚﾀ"
  27EC  BFBCC3CFC1C6CF	 DB "ｿｼﾃﾏﾁﾆ","ﾏﾓﾉｶﾞ ","ｱﾗﾜﾚﾙﾖ","ｳﾆﾅｯﾀ "
  2804  BFC9C4B7A420CA	 DB "ｿﾉﾄｷ､ ","ﾊｳﾚﾝﾉ ","ﾜｶｷｾﾝｼ","ｱﾚｽﾆ  "
  281C  B6C0D8B6B9D9D3	 DB "ｶﾀﾘｶｹﾙ","ﾓﾉｶﾞｲﾀ","ｿﾉｺｴﾊ ","ｺｳｲｯﾀ:"
  2834  DCC0BCC9C5CABE	 DB "ﾜﾀｼﾉﾅﾊ","ｾﾝﾈﾝﾏｴ","ﾉﾕｳｼｬ ","ﾀﾞｲﾀﾛｽ"
  284C  B1DABDD6A420BC	 DB "ｱﾚｽﾖ､ ","ｼﾝﾃﾞﾝﾆ","ｺｲ､   ","ｿﾉﾄｷ､ "
  2864  BAC9BBB2D4B8C9	 DB "ｺﾉｻｲﾔｸ","ﾉｼﾝｿｳｶ","ﾞｱｷﾗｶﾆ","ﾅﾙﾀﾞﾛｳ"
  287C                	OPM3:
  287C  3AB1DABDC9C5B6	 DB ":ｱﾚｽﾉﾅ","ｶﾆ､ﾂﾖｲ","ﾀﾝｷｭｳ ","ｼﾝｶﾞﾜｷ"
  2894  BFBCC3D0BCD7C7	 DB "ｿｼﾃﾐｼﾗ","ﾇﾃｷﾆｱｳ","ｶｸｺﾞｦ ","ｷﾒ､   "
  28AC  BCDDC3DEDDC6B1	 DB "ｼﾝﾃﾞﾝﾆ","ｱｼｦﾌﾐｲ","ﾚﾃｲｯﾀ･","･･････"
                      	
                      	;------------VRAM ｽﾀｯｸ---------------
  28C4  00000000      	 DB 0,0,0,0	;ﾖﾋﾞ
  28C8  00000000000000	GRD2:DB 0,0,0,0,0,0,0,0,0,0,0,0,0,0,0,0
  28D8  00000000000000	 DB 0,0,0,0,0,0,0,0,0,0,0,0,0,0,0,0,0,0
  28EA  00000000000000	 DB 0,0,0,0,0,0,0,0,0,0,0,0,0,0,0,0,0,0
  28FC  00000000000000	 DB 0,0,0,0,0,0,0,0,0,0,0,0,0,0,0,0,0,0,0
  290F  00000000000000	 DB 0,0,0,0,0,0,0,0,0,0,0,0,0,0,0,0,0,0
  2921  00000000000000	 DB 0,0,0,0,0,0,0,0,0,0,0,0,0,0,0,0,0,0,0
  2934  00000000000000	 DB 0,0,0,0,0,0,0,0,0,0,0,0,0,0,0,0,0,0
  2946  00000000000000	 DB 0,0,0,0,0,0,0,0,0,0,0,0,0,0,0,0,0,0
  2958  00000000000000	GROE1:DB 0,0,0,0,0,0,0,0,0,0,0,0,0,0,0,0
  2968  00000000000000	 DB 0,0,0,0,0,0,0,0,0,0,0,0,0,0,0,0,0,0
  297A  00000000000000	 DB 0,0,0,0,0,0,0,0,0,0,0,0,0,0,0,0,0,0
  298C  00000000000000	 DB 0,0,0,0,0,0,0,0,0,0,0,0,0,0,0,0,0,0,0
  299F  00000000000000	 DB 0,0,0,0,0,0,0,0,0,0,0,0,0,0,0,0,0,0
  29B1  00000000000000	 DB 0,0,0,0,0,0,0,0,0,0,0,0,0,0,0,0,0,0,0
  29C4  00000000000000	 DB 0,0,0,0,0,0,0,0,0,0,0,0,0,0,0,0,0,0
  29D6  00000000000000	 DB 0,0,0,0,0,0,0,0,0,0,0,0,0,0,0,0,0,0
  29E8  00000000000000	GROE2:DB 0,0,0,0,0,0,0,0,0,0,0,0,0,0,0,0
  29F8  00000000000000	 DB 0,0,0,0,0,0,0,0,0,0,0,0,0,0,0,0,0,0
  2A0A  00000000000000	 DB 0,0,0,0,0,0,0,0,0,0,0,0,0,0,0,0,0,0
  2A1C  00000000000000	 DB 0,0,0,0,0,0,0,0,0,0,0,0,0,0,0,0,0,0,0
  2A2F  00000000000000	 DB 0,0,0,0,0,0,0,0,0,0,0,0,0,0,0,0,0,0
  2A41  00000000000000	 DB 0,0,0,0,0,0,0,0,0,0,0,0,0,0,0,0,0,0,0
  2A54  00000000000000	 DB 0,0,0,0,0,0,0,0,0,0,0,0,0,0,0,0,0,0
  2A66  00000000000000	 DB 0,0,0,0,0,0,0,0,0,0,0,0,0,0,0,0,0,0
  2A78  00000000000000	GROE3:DB 0,0,0,0,0,0,0,0,0,0,0,0,0,0,0,0
  2A88  00000000000000	 DB 0,0,0,0,0,0,0,0,0,0,0,0,0,0,0,0,0,0
  2A9A  00000000000000	 DB 0,0,0,0,0,0,0,0,0,0,0,0,0,0,0,0,0,0
  2AAC  00000000000000	 DB 0,0,0,0,0,0,0,0,0,0,0,0,0,0,0,0,0,0,0
  2ABF  00000000000000	 DB 0,0,0,0,0,0,0,0,0,0,0,0,0,0,0,0,0,0
  2AD1  00000000000000	 DB 0,0,0,0,0,0,0,0,0,0,0,0,0,0,0,0,0,0,0
  2AE4  00000000000000	 DB 0,0,0,0,0,0,0,0,0,0,0,0,0,0,0,0,0,0
  2AF6  00000000000000	 DB 0,0,0,0,0,0,0,0,0,0,0,0,0,0,0,0,0,0
  2B08  00000000000000	GROE4:DB 0,0,0,0,0,0,0,0,0,0,0,0,0,0,0,0
  2B18  00000000000000	 DB 0,0,0,0,0,0,0,0,0,0,0,0,0,0,0,0,0,0
  2B2A  00000000000000	 DB 0,0,0,0,0,0,0,0,0,0,0,0,0,0,0,0,0,0
  2B3C  00000000000000	 DB 0,0,0,0,0,0,0,0,0,0,0,0,0,0,0,0,0,0,0
  2B4F  00000000000000	 DB 0,0,0,0,0,0,0,0,0,0,0,0,0,0,0,0,0,0
  2B61  00000000000000	 DB 0,0,0,0,0,0,0,0,0,0,0,0,0,0,0,0,0,0,0
  2B74  00000000000000	 DB 0,0,0,0,0,0,0,0,0,0,0,0,0,0,0,0,0,0
  2B86  00000000000000	 DB 0,0,0,0,0,0,0,0,0,0,0,0,0,0,0,0,0,0
  2B98  00000000000000	GROE5:DB 0,0,0,0,0,0,0,0,0,0,0,0,0,0,0,0
  2BA8  00000000000000	 DB 0,0,0,0,0,0,0,0,0,0,0,0,0,0,0,0,0,0
  2BBA  00000000000000	 DB 0,0,0,0,0,0,0,0,0,0,0,0,0,0,0,0,0,0
  2BCC  00000000000000	 DB 0,0,0,0,0,0,0,0,0,0,0,0,0,0,0,0,0,0,0
  2BDF  00000000000000	 DB 0,0,0,0,0,0,0,0,0,0,0,0,0,0,0,0,0,0
  2BF1  00000000000000	 DB 0,0,0,0,0,0,0,0,0,0,0,0,0,0,0,0,0,0,0
  2C04  00000000000000	 DB 0,0,0,0,0,0,0,0,0,0,0,0,0,0,0,0,0,0
  2C16  00000000000000	 DB 0,0,0,0,0,0,0,0,0,0,0,0,0,0,0,0,0,0
  2C28  00000000000000	GROE6:DB 0,0,0,0,0,0,0,0,0,0,0,0,0,0,0,0
  2C38  00000000000000	 DB 0,0,0,0,0,0,0,0,0,0,0,0,0,0,0,0,0,0
  2C4A  00000000000000	 DB 0,0,0,0,0,0,0,0,0,0,0,0,0,0,0,0,0,0
  2C5C  00000000000000	 DB 0,0,0,0,0,0,0,0,0,0,0,0,0,0,0,0,0,0,0
  2C6F  00000000000000	 DB 0,0,0,0,0,0,0,0,0,0,0,0,0,0,0,0,0,0
  2C81  00000000000000	 DB 0,0,0,0,0,0,0,0,0,0,0,0,0,0,0,0,0,0,0
  2C94  00000000000000	 DB 0,0,0,0,0,0,0,0,0,0,0,0,0,0,0,0,0,0
  2CA6  00000000000000	 DB 0,0,0,0,0,0,0,0,0,0,0,0,0,0,0,0,0,0
                      	
                      	;-----------MRAM--------------
                      	
  2CB8                	MRAM:
  2CB8  00000000000000	 DB 0,0,0,0,0,0,0,0,0,0,0,0
  2CC4  00000000000000	 DB 0,0,0,0,0,0,0,0,0,0,0,0
                      	
                      	;-----------FREE--------------
                      	
  2CD0                	FREE:
  2CD0  00000000000000	 DB 0,0,0,0,0,0,0,0,0,0,0
  2CDB                	FREE2:
  2CDB  00000000000000	 DB 0,0,0,0,0,0,0,0,0,0,0,0
  2CE7  00000000000000	 DB 0,0,0,0,0,0,0,0,0,0,0,0
  2CF3  00000000000000	 DB 0,0,0,0,0,0,0,0,0,0,0,0
  2CFF  00000000000000	 DB 0,0,0,0,0,0,0,0,0,0,0,0
  2D0B  00000000000000	 DB 0,0,0,0,0,0,0,0,0,0,0,0
  2D17  000000000000  	 DB 0,0,0,0,0,0
  2D1D  000000000000  	 DB 0,0,0,0,0,0
  2D23  00000000000000	 DB 0,0,0,0,0,0,0,0,0,0,0,0
  2D2F                	FREECL:
  2D2F  DD21472D      	 LD IX,FREEHL
  2D33  DD7201        	 LD (IX+1),HL
  2D36  DD7104        	 LD (IX+4),DE
  2D39  DD7007        	 LD (IX+7),BC
  2D3C  21C828        	 LD HL,GRD2
  2D3F  11DB2C        	 LD DE,FREE2
  2D42  014200        	 LD BC,66
  2D45  EDB0          	 LDIR
  2D47                	FREEHL:
  2D47  210000        	 LD HL,0
  2D4A  110000        	 LD DE,0
  2D4D  010000        	 LD BC,0
  2D50  C9            	 RET
                      	
                      	;--------AUTO MAP EREA---------
                      	
  2D51                	AUTOME:
  2D51  00000000000000	 DB 0,0,0,0,0,0,0,0	;BITﾃﾞﾌﾝﾀﾞﾄｺﾛｦﾋｮｳｼﾞ 1F
  2D59  00000000000000	 DB 0,0,0,0,0,0,0,0	;2F
  2D61  00000000000000	 DB 0,0,0,0,0,0,0,0
  2D69  00000000000000	 DB 0,0,0,0,0,0,0,0
  2D71  00000000000000	 DB 0,0,0,0,0,0,0,0
  2D79  00000000000000	 DB 0,0,0,0,0,0,0,0
  2D81  00000000000000	 DB 0,0,0,0,0,0,0,0
  2D89  00000000000000	 DB 0,0,0,0,0,0,0,0
  2D91  00000000000000	 DB 0,0,0,0,0,0,0,0
  2D99  00000000000000	 DB 0,0,0,0,0,0,0,0
  2DA1  00000000000000	 DB 0,0,0,0,0,0,0,0
  2DA9  00000000000000	 DB 0,0,0,0,0,0,0,0
  2DB1  00000000000000	 DB 0,0,0,0,0,0,0,0
  2DB9  00000000000000	 DB 0,0,0,0,0,0,0,0
  2DC1  00000000000000	 DB 0,0,0,0,0,0,0,0
                      	
                      	;------------TEXT DATA-------------
                      	;-------タイトル--------
                      	
  2DC9  20202020CAB3DA	TITL:DB "    ﾊｳﾚﾝ ﾎﾞｳｹﾝｷ ";"ﾀﾞｲﾀﾛｽ ﾉ ｷﾞｬｸｼｭｳ";16
  2DD9  CABCDED2D9    	TIT1:DB "ﾊｼﾞﾒﾙ";"START";5
  2DDE  C2C2DEB7B6D720	TIT2:DB "ﾂﾂﾞｷｶﾗ ";"CONTINE";7
                      	
                      	;-------ﾏｯﾌﾟ表示用----
                      	
  2DE5                	MESW1:
  2DE5  20            	         DB " "
  2DE6  20202020202020	MESWD:DB     "       "
  2DED  4D3AD2C6ADB0  	 DB "M:ﾒﾆｭｰ"
  2DF3  493ABCD7CDDED9	 DB "I:ｼﾗﾍﾞﾙ"
  2DFA  443AC3DEB0C0  	 DB "D:ﾃﾞｰﾀ"
                      	
                      	;-------ﾏｯﾌﾟﾒﾆｭｰ用---
                      	
  2E00                	DATMS1:
  2E00  20CFAFCCDF20  	 DB " ﾏｯﾌﾟ "
  2E06  20BEB0CCDE20  	 DB " ｾｰﾌﾞ "
  2E0C  20DBB0C4DE20  	 DB " ﾛｰﾄﾞ "
  2E12  20D3C4DED920  	 DB " ﾓﾄﾞﾙ "
  2E18  20B1B2C3D120  	 DB " ｱｲﾃﾑ "
  2E1E  20BDC3B0C0BD  	 DB " ｽﾃｰﾀｽ"
  2E24  20CFCEB32020  	 DB " ﾏﾎｳ  "
  2E2A  20D3C4DED920  	 DB " ﾓﾄﾞﾙ "
                      	
                      	;-----装備ﾘｽﾄ-------
                      	
  2E30                	SWORD:
  2E30  C4DEB3C9C2D9B7	 DB "ﾄﾞｳﾉﾂﾙｷﾞ";ﾂﾙｷﾞ NO.11H
  2E38  BAB3C3C2C9B9DD	 DB "ｺｳﾃﾂﾉｹﾝ "      NO.12H
  2E40  CCA7B2B1BFB0C4	 DB "ﾌｧｲｱｿｰﾄﾞ"      NO.13H
  2E48  CAB8B7DEDDC9B9	 DB "ﾊｸｷﾞﾝﾉｹﾝ"      NO.14H
  2E50  B4B8BDB6D8CADE	 DB "ｴｸｽｶﾘﾊﾞ-"      NO.15H
  2E58  B2CBDED9BFB0C4	 DB "ｲﾋﾞﾙｿｰﾄﾞ"      NO.16H
  2E60                	SHIELD:
  2E60  BBCBDEC0C0C320	 DB "ｻﾋﾞﾀﾀﾃ  ";ﾀﾃ   NO.21H
  2E68  D3B8BEB2C9C0C3	 DB "ﾓｸｾｲﾉﾀﾃ "      NO.22H
  2E70  B1B2BDBCB0D9C4	 DB "ｱｲｽｼｰﾙﾄﾞ"      NO.23H
  2E78  CAB8B7DEDDC9C0	 DB "ﾊｸｷﾞﾝﾉﾀﾃ"      NO.24H
  2E80  BEB2D2B2C9C0C3	 DB "ｾｲﾒｲﾉﾀﾃ "      NO.25H
  2E88  B2CBDED9C9C0C3	 DB "ｲﾋﾞﾙﾉﾀﾃ "      NO.26H
  2E90                	ARMOR:
  2E90  CCB82020202020	 DB "ﾌｸ      ";ﾖﾛｲ  NO.41H
  2E98  B6DCC9D6DBB220	 DB "ｶﾜﾉﾖﾛｲ  "      NO.42H
  2EA0  BBDDC0DEB1B0CF	 DB "ｻﾝﾀﾞｱｰﾏｰ"      NO.43H
  2EA8  CAB8B7DEDDD6DB	 DB "ﾊｸｷﾞﾝﾖﾛｲ"      NO.44H
  2EB0  BEDEB3BDB1B0CF	 DB "ｾﾞｳｽｱｰﾏｰ"      NO.45H
  2EB8  B2CBDED9B1B0CF	 DB "ｲﾋﾞﾙｱｰﾏｰ"      NO.46H
                      	
                      	;------ｱｲﾃﾑﾘｽﾄ-------
                      	
  2EC0                	ITLIST:
  2EC0  B7BDDEB8DEBDD8	 DB "ｷｽﾞｸﾞｽﾘ ";HP	NO.81H
  2EC8  BAC5B8DEBDD820	 DB "ｺﾅｸﾞｽﾘ  ";HP	NO.82H
  2ED0  B1C9D6C9B8BDD8	 DB "ｱﾉﾖﾉｸｽﾘ ";HP/MP/PO	NO.83H
  2ED8  C2B7D6C9B8BDD8	 DB "ﾂｷﾖﾉｸｽﾘ ";MP	NO.84H
  2EE0  CADEDDC9B3D4B8	 DB "ﾊﾞﾝﾉｳﾔｸ ";PO	NO.85H
  2EE8  CFD6B9C9B5BAB3	 DB "ﾏﾖｹﾉｵｺｳ ";MA	NO.86H
  2EF0                	IVITLS:
  2EF0  B7DDB2DBC9C0CF	 DB "ｷﾝｲﾛﾉﾀﾏ ";	NO.C1H
  2EF8  C1B6D7C9B5B0CC	 DB "ﾁｶﾗﾉｵｰﾌﾞ";	NO.C2H
  2F00  BABADBC9B5B0CC	 DB "ｺｺﾛﾉｵｰﾌﾞ";	NO.C3H
  2F08  CBB6D8C9C0CF20	 DB "ﾋｶﾘﾉﾀﾏ  ";	NO.C4H
  2F10  B2C9C1C9B5B0CC	 DB "ｲﾉﾁﾉｵｰﾌﾞ";	NO.C5H
  2F18  D8C0DDBDC4B0DD	 DB "ﾘﾀﾝｽﾄｰﾝ ";	NO.C6H
  2F20  B7DEDDC9B6C0CF	 DB "ｷﾞﾝﾉｶﾀﾏﾘ";	NO.C7H
  2F28  CCB3B2DDC9B6B7	 DB "ﾌｳｲﾝﾉｶｷﾞ";	NO.C8H
  2F30  B1D0ADDAAFC420	 DB "ｱﾐｭﾚｯﾄ  ";	NO.C9H
  2F38  CCA7D9C9BCAE20	 DB "ﾌｧﾙﾉｼｮ  ";	NO.CAH
  2F40  B3A8D9C9BCAE20	 DB "ｳｨﾙﾉｼｮ  ";	NO.CBH
  2F48  CFCEB3C9D7DDCC	 DB "ﾏﾎｳﾉﾗﾝﾌﾟ";	NO.CCH
  2F50  CAB3DADDC9BCAE	 DB "ﾊｳﾚﾝﾉｼｮ "; NO.CDH
  2F58  D5B3BCACC9BCAE	 DB "ﾕｳｼｬﾉｼｮ "; NO.CEH
  2F60  BADDCADFBD2020	 DB "ｺﾝﾊﾟｽ   "; NO.CFH
                      	
                      	;----------ﾏﾎｳ-----------
                      	
  2F68                	MAGICL:
  2F68  20CEDEB320    	 DB " ﾎﾞｳ ";DAM		LV 0
  2F6D  20DABDC020    	 DB " ﾚｽﾀ ";HPUP	LV 5
  2F72  20CADED9D1    	 DB " ﾊﾞﾙﾑ";DPUP	LV 10
  2F77  20C0DEBDC0    	 DB " ﾀﾞｽﾀ";APUP ｲﾁｼﾞ	LV 15
  2F7C  20DABDC4B1    	 DB " ﾚｽﾄｱ";HPUPP	LV 20
  2F81  20DBBDC420    	 DB " ﾛｽﾄ ";KILL ZAKI	LV 25
  2F86  20BDD9B020    	 DB " ｽﾙｰ ";FLDOWN	LV 30
                      	
                      	;-------------------YAMEYO--------------------
                      	
  2F8B                	YAMEYO:
  2F8B  D1D8C0DEBFDEBA	 DB "ﾑﾘﾀﾞｿﾞ","ｺﾝﾅﾄｺﾛ","ﾃﾞﾊﾂｶｴ","ﾅｲｿﾞ  "
                      	
                      	
                      	;-----------ｸﾞﾗﾌｨｯｸ　ﾃﾞｰﾀ----------
                      	
  2FA3                	MISEG:
  2FA3  232323233F2323	 DB 23H,23H,23H,23H,3FH,23H,23H,23H,23H,23H,23H,0E3H,63H,73H
  2FB1  F37F73F363E323	 DB 0F3H,7FH,73H,0F3H,63H,0E3H,23H,23H,23H,23H,23H,3FH,23H,23H,23H,23H
  2FC1  222222A27EA222	 DB 22H,22H,22H,0A2H,7EH,0A2H,22H,22H,22H,22H,2EH,0B7H,0B9H,0A5H
  2FCF  C511C5A5B9B72E	 DB 0C5H,11H,0C5H,0A5H,0B9H,0B7H,2EH,22H,22H,22H,22H,3EH,22H,22H,22H,22H
  2FDF  C4C4C5C7FBCBCB	 DB 0C4H,0C4H,0C5H,0C7H,0FBH,0CBH,0CBH,0CEH,0DEH,0D1H,0F9H,38H,00,12H,14H,7DH
  2FEF  1412003CC3FEC4	 DB 14H,12H,00H,3CH,0C3H,0FEH,0C4H,0C4H,0C4H,0FCH,0C4H,0C4H,0C4H,0C4H
  2FFD  54BC58BC54B0F0	 DB 54H,0BCH,58H,0BCH,54H,0B0H,0F0H,00,00,00,0FFH,0ADH,0F5H,0ADH,0ADH
  300C  F5ADADF5ADFF00	 DB 0F5H,0ADH,0ADH,0F5H,0ADH,0FFH,00,00,0F0H,0B2H,5EH,0B3H,53H,0BEH,52H
  301B                	KAIFUG:
  301B  C27EC7FC89FEFE	 DB 0C2H,7EH,0C7H,0FCH,89H,0FEH,0FEH,92H,0F2H,92H,9EH,92H,0F2H,92H,9EH,9EH
  302B  92F2929E92F292	 DB 92H,0F2H,92H,9EH,92H,0F2H,92H,0FEH,0FEH,89H,0FCH,0C7H,7EH,0C2H
  3039  C77CC73CE7FFFF	 DB 0C7H,7CH,0C7H,3CH,0E7H,0FFH,0FFH,24H,3CH,24H,0E7H,24H,3CH,24H,0E7H
  3048  E7243C24E7243C	 DB 0E7H,24H,3CH,24H,0E7H,24H,3CH,24H,0FFH,0FFH,0E7H,3CH,0C7H,7CH,0C7H
  3057  0FF8877C233F5F	 DB 0FH,0F8H,87H,7CH,23H,3FH,5FH,91H,9FH,91H,51H,51H,5FH,51H,0D1H,0D1H
  3067  515F5151919F91	 DB 51H,5FH,51H,51H,91H,9FH,91H,5FH,3FH,23H,7CH,87H,0F8H,0FH
  3075  020100000C9361	 DB 02,01,00,00,0CH,93H,61H,43H,66H,5AH,6AH,0A4H,96H,99H,88H
  3084  889996A46A5A66	 DB 88H,99H,96H,0A4H,6AH,5AH,66H,43H,61H,93H,0CH,00,00,01,02
  3093                	TOBIRA:
  3093  0000F0E8D0E0F0	 DB 00,00,0F0H,0E8H,0D0H,0E0H,0F0H,0F4H,0AAH,0FCH,0F4H,0F2H,0E8H,0FAH
  30A1  F4ECFAE8F2F4FC	 DB 0F4H,0ECH,0FAH,0E8H,0F2H,0F4H,0FCH,0AAH,0F4H,0F0H,0E0H,0D0H,0E8H,0F0H,00,00
  30B1  00B35EADFFFF81	 DB 00,0B3H,5EH,0ADH,0FFH,0FFH,81H,7EH,42H,42H,42H,42H,7EH,00,0FFH
  30C0  FF007E42424242	 DB 0FFH,00,7EH,42H,42H,42H,42H,7EH,81H,0FFH,0FFH,0ADH,5EH,0B3H,00
  30CF  00D9AF54FFFF40	 DB 00,0D9H,0AFH,54H,0FFH,0FFH,40H,0BFH,0A1H,0A1H,0A1H,0A1H,0BFH,00,0FFH
  30DE  FF00BFB9A9A1A1	 DB 0FFH,00,0BFH,0B9H,0A9H,0A1H,0A1H,0BFH,40H,0FFH,0FFH,54H,0AFH,0D9H,00
  30ED  E0ECF7EBFFFFE0	 DB 0E0H,0ECH,0F7H,0EBH,0FFH,0FFH,0E0H,0FFH,0F0H,0F0H,0F0H,0F0H,0FFH,0E0H,0FFH
  30FC  FFE0FFF0F0F0F0	 DB 0FFH,0E0H,0FFH,0F0H,0F0H,0F0H,0F0H,0FFH,0E0H,0FFH,0FFH,0EBH,0F7H,0ECH,0E0H
  310B                	KAZIG:
  310B  9393F39393939F	 DB 93H,93H,0F3H,93H,93H,93H,9FH,93H,93H,93H,93H,93H,0D3H,0F3H
  3119  73737FF3D393F3	 DB 73H,73H,07FH,0F3H,0D3H,93H,0F3H,93H,93H,93H,93H,9FH,93H,93H,93H,93H
  3129  24243C242424E7	 DB 24H,24H,3CH,24H,24H,24H,0E7H,0A4H,0A4H,0A4H,0E4H,1CH,0D7H,36H,39H
  3138  44995697D43CE4	 DB 44H,99H,56H,97H,0D4H,3CH,0E4H,24H,24H,24H,0E7H,0E6H,7BH,0FDH,0E6H
  3147  4949CFC9C9C97F	 DB 49H,49H,0CFH,0C9H,0C9H,0C9H,7FH,60H,60H,07FH,6CH,0F7H,9CH,95H,0D8H
  3156  58D8999EAB7C5B	 DB 58H,0D8H,99H,9EH,0ABH,7CH,5BH,59H,59H,4FH,0FFH,6AH,2AH,0FFH,7FH
  3165  FCF5FEF6F6F7FD	 DB 0FCH,0F5H,0FEH,0F6H,0F6H,0F7H,0FDH,0F5H,0FCH,00H,10H,1FH,15H,1AH,07H
  3174  00071A151F1000	 DB 00H,07H,1AH,15H,1FH,10H,00H,60H,92H,96H,0AAH,0D1H,0ADH,93H,60H
  3183                	MEGAMG:
  3183  44C744447C4444	 DB 44H,0C7H,44H,44H,7CH,44H,44H,0C7H,44H,0C4H,7CH,02H,0F1H,09H,09H,09H
  3193  F1027CC744447C	 DB 0F1H,02H,7CH,0C7H,44H,44H,7CH,44H,44H,0C7H,44H,44H,7CH,44H
  31A1  44C744447C4444	 DB 44H,0C7H,44H,44H,7CH,44H,44H,0C7H,7CH,83H,78H,87H,20H,21H,0D0H
  31B0  21208778837C44	 DB 21H,20H,87H,78H,83H,7CH,44H,7CH,44H,44H,0C7H,44H,44H,7CH,44H
  31BF  44C744447C4444	 DB 44H,0C7H,44H,44H,7CH,44H,44H,0C7H,44H,0A4H,7DH,03H,01H,01H,00H
  31CE  0101037DA744C4	 DB 01H,01H,03H,7DH,0A7H,44H,0C4H,7CH,44H,44H,0C7H,44H,44H,7CH,44H
  31DD  C4C7C4C4C4C4C4	 DB 0C4H,0C7H,0C4H,0C4H,0C4H,0C4H,0C4H,0FFH,0C8H,0D3H,0D4H,0D4H,0D4H,0D4H,0D4H
  31EC  D4D4D4D4D3C8FF	 DB 0D4H,0D4H,0D4H,0D4H,0D3H,0C8H,0FFH,0C4H,0C4H,0C4H,0C7H,0C4H,0C4H,0C4H,0C4H
  31FB                	daig:
  31FB  242CF424252624	 db 24h,2Ch,0F4h,24h,25h,26h,24h,0A4h,0ACh,0B4h,0A4h,0A4h,3Eh,4Dh,9Ah,15h,9Ah
  320C  4D3EA5A4A4B4AC	 db 4Dh,3Eh,0A5h,0A4h,0A4h,0B4h,0ACh,24h,24h,26h,25h,0F4h,2Ch
  3219  4949794949CF49	 db 49h,49h,79h,49h,49h,0CFh,49h,0FEh,8Ah,12h,0F1h,01h,55h,55h,0E9h,25h
  3229  E9555501F1128A	 db 0E9h,55h,55h,01h,0F1h,12h,8Ah,0FEh,49h,0CFh,49h,49h,79h,49h
  3237  92929E9292F392	 db 92h,92h,9Eh,92h,92h,0F3h,92h,0BFh,0A8h,0FDh,9Fh,0DAh,34h,0FCh,94h
  3246  1C94FC34DA9FFD	 db 1Ch,94h,0FCh,34h,0DAh,9Fh,0FDh,0A8h,0BFh,92h,0F3h,92h,92h,9Eh,92h
  3255  24E46774545C54	 db 24h,0E4h,67h,74h,54h,5Ch,54h,56h,56h,0F7h,0Fh,0E0h,1Ah,0FFh,56h,57h
  3265  56FF1AE00FF756	 db 56h,0FFh,1Ah,0E0h,0Fh,0F7h,56h,54h,5Ch,54h,74h,64h,0E7h,24h
  3273                	RIDNG:;72byte
  3273  00008070987806	 DB 00,00,80H,70H,98H,78H,06H,00,00,3CH,5EH,87H
  327F  864F3E07000678	 DB 86H,4FH,3EH,07H,00,06,78H,98H,70H,80H,00,00
  328B  00001F20003C46	 DB 00,00,1FH,20H,00H,3CH,46H,8EH,0B1H,79H,0E9H
  3296  D6E6D969B18F46	 DB 0D6H,0E6H,0D9H,69H,0B1H,8FH,46H,3CH,00,20H,1FH,00,00
  32A3  0000708C92B2B9	 DB 00,00,70H,8CH,92H,0B2H,0B9H,9DH,9FH,9DH,99H
  32AE  4A4AA9AD9F9DB9	 DB 4AH,4AH,0A9H,0ADH,9FH,9DH,0B9H,0B2H,82H,8CH,70H,00,00
  32BB                	HARTG:
  32BB  00000010281000	 DB 00,00,00,10H,28H,10H,00,0F0H,0FCH,0FEH,0BFH,1FH
  32C7  1EBFFEFCF00010	 DB 1EH,0BFH,0FEH,0FCH,0F0H,00,10H,28H,10H,00,00,00
  32D3  00002050200080	 DB 00,00,20H,50H,20H,00H,80H,75H,8FH,6FH,07H,0C9H
  32DF  C9076F8F758000	 DB 0C9H,07,6FH,8FH,75H,80H,00,20H,50H,20H,00,00
  32EB  0010281080C0E1	 DB 00,10H,28H,10H,80H,0C0H,0E1H,76H,0BFH,4EH,80H
  32F6  4080408E5FB671	 DB 40H,80H,40H,8EH,5FH,0B6H,71H,0E0H,0C0H,90H,28H,10H,00
  3303                	KOKORG:
  3303  00000000000008	 DB 00,00,00,00,00,00,08,18H,0ABH,0BEH,0C7H,4EH,47H
  3310  CEBFA818080000	 DB 0CEH,0BFH,0A8H,18H,08,00,00,00,00,00,00
  331B  00000000001E21	 DB 00,00,00,00,00,1EH,21H,4DH,0D2H,7BH,32H,49H
  3327  49B27BD24D211E	 DB 49H,0B2H,7BH,0D2H,4DH,21H,1EH,00,00,00,00,00
  3333  0000000000000C	 DB 00,00,00,00,00,00,0CH,9FH,0E3H,0A1H,0FAH,09
  333F  0AF9A2E39F0C00	 DB 0AH,0F9H,0A2H,0E3H,9FH,0CH,00,00,00,00,00,00
  334B                	FUINDG:
  334B  0000F0E8D0E0F0	 db 00,00,0F0h,0E8h,0D0h,0E0h,0F0h,0F4h,0AAh,0FCh,0F4h,0F2h,0E8h,0FAh
  3359  F4ECFAE8F2F4FC	 db 0F4h,0ECh,0FAh,0E8h,0F2h,0F4h,0FCh,0AAh,0F4h,0F0h,0E0h,0D0h,0E8h,0F0h,0,00
  3369  00B35EADFFFF81	 db 00,0B3h,5Eh,0ADh,0FFh,0FFh,081h,7Eh,42h,42h,42h,42h,7Eh,00,0FFh,0FFh
  3379  007E424242427E	 db 00,7Eh,42h,42h,42h,42h,7Eh,81h,0FFh,0FFh,0ADh,5Eh,0B3h,00
  3387  00D9AF54FFFF40	 db 00,0D9h,0AFh,054h,0FFh,0FFh,40h,0BFh,0A1h,0A1h,0A1h,0A1h,0BFh,000h,0FFh
  3396  FF00BFB9A9A1A1	 db 0FFh,00,0BFh,0B9h,0A9h,0A1h,0A1h,0BFh,040h,0FFh,0FFh,054h,0AFh,0D9h,00
  33A5  E0ECF7EBFFFFE0	 db 0E0h,0ECh,0F7h,0EBh,0FFh,0FFh,0E0h,0FFh,0F0h,0F0h,0F0h,0F0h,0FFh,0E0h,0FFh
  33B4  FFE0FFF0F0F0F0	 db 0FFh,0E0h,0FFh,0F0h,0F0h,0F0h,0F0h,0FFh,0E0h,0FFh,0FFh,0EBh,0F7h,0ECh,0E0h
  33C3                	LASTG:
  33C3  00000000000080	 DB 00,00,00,00,00,00,80H,0C8H,0C5H,4EH,5BH,0A6H
  33CF  A37A5FF6CC9800	 DB 0A3H,7AH,5FH,0F6H,0CCH,98H,00,00,00,00,00,00
  33DB  0000000070FC9F	 DB 00,00,00,00,70H,0FCH,9FH,0FFH,0FFH,55H,0C0H,0C0H
  33E7  C0C055FFFF9FFC	 DB 0C0H,0C0H,55H,0FFH,0FFH,9FH,0FCH,70H,00,00,00,00
  33F3  00000000383C1F	 DB 00,00,00,00,38H,3CH,1FH,0BFH,0EAH,0D5H,7FH,3FH
  33FF  3F7FD5EA9F3F3C	 DB 3FH,7FH,0D5H,0EAH,9FH,3FH,3CH,30H,00,00,00,00
  340B                	MESSEG:
  340B  88888888898A8C	 DB 88H,88H,88H,88H,89H,8AH,8CH,0F8H,88H,88H,88H,88H,88H,88H,88H,0FFH
  341B  88888888888888	 DB 88H,88H,88H,88H,88H,88H,88H,0F8H,8CH,08AH,89H,88H,88H,88H
  3429  8888888F888888	 DB 88H,88H,88H,8FH,88H,88H,88H,0F8H,88H,0FEH,82H,23H,9AH,22H,8AH
  3438  A22A822AA302FE	 DB 0A2H,2AH,82H,2AH,0A3H,02H,0FEH,88H,0F8H,88H,88H,88H,8FH,88H,88H
  3447  8888888F888888	 DB 88H,88H,88H,8FH,88H,88H,88H,0F8H,88H,0BFH,0A0H,0A2H,0B6H,0A0H
  3455  B2E4B8A2A8B6AE	 DB 0B2H,0E4H,0B8H,0A2H,0A8H,0B6H,0AEH,0BFH,88H,0F8H,88H,88H,88H,8FH,88H,88H
  3465  0808080F080808	 DB 08H,08H,08H,0FH,08H,08H,08H,08H,08H,08H,08H,0FH,08H,08H,08H,08H
  3475  0808080F080808	 DB 08H,08H,08H,0FH,08H,08H,08H,08H,08H,08H,08H,0FH,08H,08H
  3483                	EXCALG:
  3483  00000000008000	 DB 00,00,00,00,00,80H,00,00,00,0F8H,04H,0FAH
  348F  74F80000000000	 DB 74H,0F8H,00,00,00,00,00,00,00,00,00,00
  349B  00000000010201	 DB 00,00,00,00,01,02,01,80H,80H,0FFH,00,0FFH,76H
  34A8  FF808814080000	 DB 0FFH,80H,88H,14H,08H,00,00,00,00,00,00
  34B3  00000000000001	 DB 00,00,00,00,00,00,01,01,03,03,7FH,7FH
  34BF  3F030301010000	 DB 3FH,03,03,01,01,00,00,00,00,00,00,00
  34CB                	SEITG:
  34CB  0000000000F028	 DB 00,00,00,00,00,0F0H,28H,0C8H,8CH,04,24H
  34D6  545424048CC828	 DB 54H,54H,24H,04,8CH,0C8H,28H,0F0H,00,00,00,00,00
  34E3  0000000000FF00	 DB 00,00,00,00,00,0FFH,00,6AH,0FFH,0FFH,2AH
  34EE  01012AFFB76A00	 DB 01,01,2AH,0FFH,0B7H,6AH,00,0FFH,00,00,00,00,00
  34FB  00205020000305	 DB 00,20H,50H,20H,00,03,05,0CH,19H,10H,34H,2AH
  3507  2A3410190C0503	 DB 2AH,34H,10H,19H,0CH,05,03,00,00,00,00,00
  3513                	REFLEG:
  3513  000010A82828E8	 DB 00,00,10H,0A8H,28H,28H,0E8H,28H,10H,10H,28H
  351E  E8E828101028E8	 DB 0E8H,0E8H,28H,10H,10H,28H,0E8H,28H,28H,28H,10H,00,00
  352B  00000102010081	 DB 00,00,01,02,01,00,81H,86H,7EH,22H,62H,5DH
  3537  5D2262FE868100	 DB 5DH,22H,62H,0FEH,86H,81H,00H,08H,14H,08H,00,00
  3543  00040A0E090744	 DB 00,04,0AH,0EH,09H,07,44H,0A3H,43H,07,0DH,1DH
  354F  150D0703030407	 DB 15H,0DH,07H,03,03,04,07,09,0EH,0AH,04H,00
  355B                	OBUG:
  355B  0000202474FCF8	 DB 00,00,20H,24H,74H,0FCH,0F8H,0F0H,0F0H,0F0H,78H,7CH
  3567  7E7EF6E2E0C0C0	 DB 7EH,7EH,0F6H,0E2H,0E0H,0C0H,0C0H,0E0H,0F8H,00,00,00
  3573  008E1CFCFEFFFF	 DB 00,8EH,1CH,0FCH,0FEH,0FFH,0FFH,0CBH,14H,2AH,55H
  357E  AA51A44A24C3FF	 DB 0AAH,51H,0A4H,4AH,24H,0C3H,0FFH,0FFH,0FFH,0BCH,1EH,0FH,00
  358B  00010303070F0F	 DB 00,01,03,03,07,0FH,0FH,0FH,1FH,1FH,1EH,1EH,1FH
  3598  1E1F1F0F0F0707	 DB 1EH,1FH,1FH,0FH,0FH,07H,07H,07H,07H,03H,01H
  35A3                	TAKARG:
  35A3  00000000000000	 DB 00,00,00,00,00,00,00,80H,40H,40H,40H,40H,40H
  35B0  404040404040C0	 DB 40H,40H,40H,40H,40H,40H,0C0H,0C0H,0C0H,00,00
  35BB  0000F0B854B653	 DB 00,00,0F0H,0B8H,54H,0B6H,53H,0F2H,52H,0D2H
  35C5  52F252B252B25A	 DB 52H,0F2H,52H,0B2H,52H,0B2H,5AH,0FEH,0BBH,0D5H,6AH,3FH,00,00
  35D3  0000070A0D0A0D	 DB 00,00,07,0AH,0DH,0AH,0DH,0AH,0DH,0AH,0DH
  35DE  0A0D0A0D0A0D07	 DB 0AH,0DH,0AH,0DH,0AH,0DH,07H,02H,01,00H,00,00,00
  35EB                	TAKRFG:
  35EB  0080E43C081010	 DB 00,80H,0E4H,3CH,08H,10H,10H,20H,18H,0EH,18H,10H
  35F7  18080C06081020	 DB 18H,08H,0CH,06H,08H,10H,20H,20H,10H,0FCH,80H,00
  3603  21DE00FEB55BB5	 DB 21H,0DEH,00H,0FEH,0B5H,5BH,0B5H,05BH,0F5H,05BH
  360D  D55BF55BB55BB5	 DB 0D5H,05BH,0F5H,05BH,0B5H,5BH,0B5H,5BH,0FDH,0ABH,0FEH,00,0BEH,41H
  361B  021D204F8A0D0A	 DB 02,1DH,20H,4FH,8AH,0DH,0AH,0DH,0AH,0DH,0AH,0DH,0AH
  3628  0D0A0D0A0D0F86	 DB 0DH,0AH,0DH,0AH,0DH,0FH,86H,63H,18H,07H,00
  3633                	BOOKG:
  3633  0000000000F8FC	 DB 00,00,00,00,00,0F8H,0FCH,04,0C4H,64H,004H,0D4H
  363F  046404E484FC00	 DB 04H,64H,04H,0E4H,84H,0FCH,00,00,00,00,00,00
  364B  0000000000FFFF	 DB 00,00,00,00,00,0FFH,0FFH,00,01,28H,38H,79H
  3657  7869600100FF00	 DB 78H,69H,60H,01,00,0FFH,00,00,00,00,00,00
  3663  0000000000070B	 DB 00,00,00,00,00,07,0BH,0DH,0BH,0DH,0BH,0DH,0BH
  3670  0D0B0D0B070000	 DB 0DH,0BH,0DH,0BH,07H,00,00,000,0,00,00
                      	
                      	
                      	
                      	
                      	
                      	;------ﾀｲﾄﾙ用------
                      	
  367B  000000048EDB71	KAMI:DB 00H,00H,00H,04H,08EH,0DBH,071H,020H
  3683  0090F79BF79BF7	SHIN:DB 0H,090H,0F7H,09BH,0F7H,09BH,0F7H,09BH
  368B  F79BF79BF79BF7	 DB 0F7H,09BH,0F7H,09BH,0F7H,09BH,0F7H,09BH,0F7H
  3694  9BF79BF79BF79B	 DB 09BH,0F7H,09BH,0F7H,09BH,0F7H,09BH,0F7H,09BH
  369D  F79BF79BF79BF7	 DB 0F7H,09BH,0F7H,09BH,0F7H,09BH,0F7H,090H,0H,0H
  36A7  1C2A552A1C00  	CURG:DB 1CH,2AH,55H,2AH,1CH,0H
                      	
                      	;----------ｱｲｺﾝ----------
                      	
  36AD                	ICOM:
  36AD  D8F870E8D40A05	 DB 0D8H,0F8H,70H,0E8H,0D4H,0AH,5H,3H;ｹﾝ
  36B5  3F4989FF89C9FF	 DB 3FH,49H,89H,0FFH,89H,0C9H,0FFH,7EH;ﾀﾃ
  36BD  E3B56A55556AB5	 DB 0E3H,0B5H,6AH,55H,55H,6AH,0B5H,0E3H;ﾖﾛｲ
  36C5  C0A0DEB7DEA0C0	 DB 0C0H,0A0H,0DEH,0B7H,0DEH,0A0H,0C0H,0;ｸｽﾘ
  36CD  DBFF7EE7E77EFF	 DB 0DBH,0FFH,07EH,0E7H,0E7H,7EH,0FFH,0DBH;ｱｲﾃﾑ
  36D5  147C54007C1102	 DB 14H,7CH,54H,00,7CH,11H,02,78H,00,78H,20H;RET
                      	
                      	;-----ﾏｯﾌﾟ用-----
                      	
  36E0  000000E010A0F8	MAPF1:DB 0,0,0,0E0H,10H,0A0H,0F8H,0D4H,0ACH,0F8H,0C0H
  36EB  E0F0F4AAFCF4EA	 DB 0E0H,0F0H,0F4H,0AAH,0FCH,0F4H,0EAH,0D8H,0E4H
  36F4  C6CAE4D8EAF4FC	 DB 0C6H,0CAH,0E4H,0D8H,0EAH,0F4H,0FCH,0AAH,0F4H,0F0H
  36FE  E0C0F8ACD4F8A0	 DB 0E0H,0C0H,0F8H,0ACH,0D4H,0F8H,0A0H,10H,0E0H,0,0,0
  370A  003C42BD66FF  	MAPF2L:DB 0,3CH,42H,0BDH,66H,0FFH
  3710  FF66BD423C00  	MAPF2R:DB 0FFH,66H,0BDH,42H,03CH,0
  3716  0000000708051F	MAPF3:DB 0,0,0,7H,8H,5H,1FH,2BH,35H,1FH,3H,7H,0FH,2FH
  3724  553F2F571B2763	 DB 55H,3FH,2FH,57H,1BH,27H,63H,53H,27H,1BH,57H,2FH,3FH,55H
  3732  2F0F07031F352B	 DB 2FH,0FH,7H,3H,1FH,35H,2BH,1FH,5H,8H,7H,0,0,0,0,0,0
  3743  000000E0202020	MESF1:DB 0,0,0,0E0H,20H,20H,20H,20H,20H,20H,20H,20H,20H
  3750  20202020202020	 DB 20H,20H,20H,20H,20H,20H,20H,20H,20H,20H,20H,20H
  375C  20202020202020	 DB 20H,20H,20H,20H,20H,20H,20H,20H,20H,20H,20H,20H
  3768  20202020202020	 DB 20H,20H,20H,20H,20H,20H,20H,20H,0E0H,0,0
  3773  000000FF      	MESF2:DB 0,0,0,0FFH
  3777  00000007040404	MESF3:DB 0,0,0,7,4,4,4,4,4,4,4,4,4,4,4,4,4,4,4,4,4,4,4
  378E  04040404040404	 DB 4,4,4,4,4,4,4,4,4,4,4,4,4,4,4,4,4,4,4,4,4,4,7
  37A5  7F6D576D5B7F  	KB1:DB 7FH,6DH,57H,6DH,5BH,7FH
  37AB  FC48F020C080  	KB2L1:DB 0FCH,48H,0F0H,20H,0C0H,80H
  37B1  FF92ED33DE7F  	 DB 0FFH,92H,0EDH,33H,0DEH,7FH;KB2L2:
  37B7  0F0403010000  	 DB 0FH,04,03,01,00,00;KB2L3:
  37BD  80C020F048FC  	KB2R1:DB 80H,0C0H,20H,0F0H,48H,0FCH
  37C3  7FDE33ED92FF  	 DB 7FH,0DEH,33H,0EDH,92H,0FFH;KB2R2:
  37C9  00000103040F  	 DB 0,0,1H,3H,4H,0FH;KB2R3:
  37CF  FE92F2929E92F2	KB3R1:DB 0FEH,92H,0F2H,92H,9EH,92H,0F2H,92H,9EH,9EH,92H,0F2H
  37DB  929E92F292FE  	KB3L1:DB 92H,9EH,92H,0F2H,92H,0FEH
  37E1  FF243C24E7243C	KB3R2:DB 0FFH,24H,3CH,24H,0E7H,24H,3CH,24H,0E7H,0E7H,24H,3CH
  37ED  24E7243C24FF  	KB3L2:DB 24H,0E7H,24H,3CH,24H,0FFH
  37F3  1F111F1111111F	KB3R3:DB 1FH,11H,1FH,11H,11H,11H,1FH,11H,11H,11H,11H,1FH
  37FF  1111111F111F  	KB3L3:DB 11H,11H,11H,1FH,11H,1FH
  3805  C27EC7FC89FE  	KB4L1:DB 0C2H,7EH,0C7H,0FCH,89H,0FEH
  380B  C77CC73CE7FF  	 DB 0C7H,7CH,0C7H,3CH,0E7H,0FFH;KB4L2:
  3811  0FF8877C231F  	 DB 0FH,0F8H,87H,7CH,23H,1FH;KB4L3:
  3817  020100000000  	 DB 02H,01H,0,0,0,0;KB4L4:
  381D  FE89FCC77EC2  	KB4R1:DB 0FEH,89H,0FCH,0C7H,7EH,0C2H
  3823  FFE73CC77CC7  	 DB 0FFH,0E7H,3CH,0C7H,7CH,0C7H;KB4R2:
  3829  1F237C87F80F  	 DB 1FH,23H,7CH,87H,0F8H,0FH;KB4R3:
  382F  000000000102  	 DB 0,0,0,0,01H,02H;KB4R4:
  3835  7F7F55577D7F  	DOA1:DB 7FH,7FH,55H,57H,7DH,7FH
  383B  FCC8F0A0C080FF	DOA2L:DB 0FCH,0C8H,0F0H,0A0H,0C0H,80H,0FFH,0FFH,0AH,0FCH,0FFH,7FH
  3847  0F0702010000  	 DB 0FH,7,2,1,0,0
  384D  80C0A0F0C8FC7F	DOA2R:DB 80H,0C0H,0A0H,0F0H,0C8H,0FCH,7FH,0FFH,0FCH,0AH,0FFH,0FFH
  3859  00000102070F  	 DB 00,00,01,02,07,0FH
  385F  FE92F2F21ED252	DOA3:DB 0FEH,92H,0F2H,0F2H,1EH,0D2H,52H,52H,5EH,5EH,52H,52H
  386B  D21EF2F292FE  	 DB 0D2H,1EH,0F2H,0F2H,92H,0FEH
  3871  FF243CFF00FF00	 DB 0FFH,24H,3CH,0FFH,00,0FFH,00,06,06,06,06,00
  387D  FF00FF3C24FF  	 DB 0FFH,00,0FFH,3CH,24H,0FFH
  3883  1F111F1F101F10	 DB 1FH,11H,1FH,1FH,10H,1FH,10H,10H,10H,10H,10H,10H
  388F  1F101F1F111F  	 DB 1FH,10H,1FH,1FH,11H,1FH
  3895  FE89FC17EE2AFF	DOA4R:DB 0FEH,89H,0FCH,17H,0EEH,2AH,0FFH,0E7H,0FFH,00,0FFH,00
  38A1  1F237F80FF0000	 DB 1FH,23H,7FH,80H,0FFH,00,00,00,00,00,01,02
  38AD  2AEE17FC89FE00	DOA4L:DB 2AH,0EEH,17H,0FCH,89H,0FEH,00,0FFH,00,0FFH,0E7H,0FFH
  38B9  00FF807F231F02	 DB 0,0FFH,80H,7FH,23H,1FH,2,1,0,0,0,0
                      	
                      	;---------ﾃｷｸﾞﾗﾌｨｯｸ-------------
                      	
  38C5                	TGR:
                      	;-------ｽｹﾙﾄﾝ----------
  38C5  00000000F8FC00	 DB 0,0,0,0,0F8H,0FCH,0,0,0,80H,88H,74H,0CAH,92H,64H,98H
  38D5  00000000000000	 DB 0,0,0,0,0,0,0,0
  38DD  000000020F0F06	 DB 0,0,0,2,0FH,0FH,6,2,83H,6AH,0D4H,55H,8AH,0D5H,55H
  38EC  EA411E60A00000	 DB 0EAH,41H,1EH,60H,0A0H,0,0,0,0
  38F5  00000000000062	 DB 0,0,0,0,0,0,62H,5DH,6EH,11H,1,3,5,3,2,3FH
  3905  59660000000000	 DB 59H,66H,0,0,0,0,0,0
                      	;-------ｸﾞｰﾙ-----------
  390D  00000000000000	 DB 0,0,0,0,0,0,0,80H,0C0H,78H,0FCH,9CH,7CH,0DCH,0B8H
  391C  C080C000000000	 DB 0C0H,80H,0C0H,0,0,0,0,0,0
  3925  0000001C120B05	 DB 0,0,0,1CH,12H,0BH,5,2,7EH,0EBH,0DEH,0BCH,79H,0B2H
  3933  4D95E683000000	 DB 4DH,95H,0E6H,83H,0,0,0,0,0,0
  393D  00000000000000	 DB 0,0,0,0,0,0,0,60H,5EH,77H,7CH,43H,1,1,0FH,7EH,57H
  394E  7A4C0000000000	 DB 7AH,4CH,0,0,0,0,0
                      	;-------ﾉﾛｲﾉｹﾝ---------
  3955  00000000008040	 DB 0,0,0,0,0,80H,40H,60H,90H,0E8H,48H,34H,3CH,14H,8,0,0
  3966  78A8D020000000	 DB 78H,0A8H,0D0H,20H,0,0,0
  396D  00000000000709	 DB 0,0,0,0,0,7,9,1BH,3BH,57H,94H,68H,10H,0A0H,42H,0C5H
  397D  2BE6C400000000	 DB 2BH,0E6H,0C4H,0,0,0,0,0
  3985  00000008162A2C	 DB 0,0,0,8,16H,2AH,2CH,18H,0,18H,34H,3FH,1BH,0CH,0FH,11H
  3995  27597060000000	 DB 27H,59H,70H,60H,0,0,0,0
                      	;-------ﾋﾄｸｲｸｻ---------
  399D  000000C0000000	 DB 0,0,0,0C0H,0,0,0,3CH,0E2H,0F2H,62H,0C0H,40H,0C0H
  39AB  B0180808080800	 DB 0B0H,18H,8,8,8,8,0,0,0,0
  39B5  000020C30C78E0	 DB 00,00,20H,0C3H,0CH,78H,0E0H,0FEH,0FH,0CEH,30H,0F1H
  39C1  E77C1FFFB1198D	 DB 0E7H,7CH,1FH,0FFH,0B1H,19H,8DH,4CH,28H,20H,20H,10H
  39CD  0006081B32262F	 DB 0,6,8,1BH,32H,26H,2FH,3FH,2FH,3FH,2EH,3DH,3FH,2EH
  39DB  2B3B2F2D3D330C	 DB 2BH,3BH,2FH,2DH,3DH,33H,0CH,3,0,0
                      	;-------ﾀﾞｲｼﾞｬ---------
  39E5  000FFE8C1CFEF2	 DB 0,0FH,0FEH,8CH,1CH,0FEH,0F2H,06,0AH,0F6H,0FAH,4EH,0A6H
  39F2  AF6CD0B0F06080	 DB 0AFH,6CH,0D0H,0B0H,0F0H,60H,80H,0,0,0,0
  39FD  0000030D33324E	 DB 0,0,3,0DH,33H,32H,4EH,5EH,5EH,2EH,3EH,0BH,5,2,83H,66H
  3A0D  1D83FFFD7E0000	 DB 1DH,83H,0FFH,0FDH,7EH,0,0,0
  3A15  00000060A0D0D0	 DB 0,0,0,60H,0A0H,0D0H,0D0H,98H,0B8H,0D8H,0D4H,96H,0B6H
  3A22  FDAFAFA7E7AFAE	 DB 0FDH,0AFH,0AFH,0A7H,0E7H,0AFH,0AEH,0D6H,52H,64H,38H
                      	;-------ﾉｰﾄﾙ-----------
  3A2D  0000000000E0A0	 DB 0,0,0,0,0,0E0H,0A0H,40H,0A0H,10H,88H,44H
  3A39  62528E000040A0	 DB 62H,52H,8EH,0,0,40H,0A0H,18H,0A0H,40H,0,0
  3A45  0014786CC89FF4	 DB 0,14H,78H,6CH,0C8H,9FH,0F4H,0EFH,0D2H,0B5H,5EH,94H
  3A51  C474F8D1FED02E	 DB 0C4H,74H,0F8H,0D1H,0FEH,0D0H,2EH,93H,8EH,0C0H,40H,0
  3A5D  0000003040404E	 DB 0,0,0,30H,40H,40H,4EH,67H,7FH,7FH,7FH,7FH,7FH,7FH
  3A6B  7F3F3F1F0F0701	 DB 7FH,3FH,3FH,1FH,0FH,7,1,0,0,0
                      	;-------ｳｲｻﾞﾄﾞ---------
  3A75  0010702CD82C70	 DB 0,16,112,44,216,44,112,144,128,136
  3A7F  94BACE66CCBA8C	 db 148,186,206,102,204,186,140,0,0,0,0,0,0,0
  3A8D  0000001CF71E1F	 DB 0,0,0,28,247,30,31,47,95,95,255,199
  3A99  C5EAF4FFFF1FFE	 db 197,234,244,255,255,31,254,132,248,0,0,0
  3AA5  00000000070000	 DB 0,0,0,0,7,0,0,0,6,111,83,127,7,7
  3AB3  7F577F07010201	 db 127,87,127,7,1,2,1,0,0,0
                      	;-------ｸﾞﾘﾌｫﾝ---------
  3ABD  0000000080C060	 DB 00,00,00,00,80H,0C0H,60H,0D0H,0A8H,0A0H,40H,0C0H
  3AC9  A0D0A8A8F85454	 DB 0A0H,0D0H,0A8H,0A8H,0F8H,54H,54H,0AAH,54H,0A8H,40H,00
  3AD5  0008BCDAE168CD	 DB 00,08,0BCH,0DAH,0E1H,68H,0CDH,80H,40H,15H,2DH,6BH
  3AE1  362AEBB6EAB555	 DB 36H,2AH,0EBH,0B6H,0EAH,0B5H,55H,5AH,35H,55H,3AH,00
  3AED  00000040787E3D	 DB 00,00,00,40H,78H,7EH,3DH,06,4EH,7CH,74H,04H,02H
  3AFA  6C7A7F150E3C38	 DB 6CH,7AH,7FH,15H,0EH,3CH,38H,30H,10H,00H,00H
                      	;-------ﾄﾞﾗｺﾞﾝ---------
  3B05  00000080D8A828	 DB 00,00,00,80H,0D8H,0A8H,28H,0C8H,50H,10H,08H,44H
  3B11  6A0E36E5733A98	 DB 6AH,0EH,36H,0E5H,73H,3AH,98H,0D8H,98H,10H,30H,00
  3B1D  00FE713C8FC6E5	 DB 00,0FEH,71H,3CH,8FH,0C6H,0E5H,7EH,3AH,0EDH,12H,0A8H
  3B29  50A84EBD72990C	 DB 50H,0A8H,4EH,0BDH,72H,99H,0CH,1FH,38H,61H,0FEH,00
  3B35  000000010347A6	 DB 00,00,00,01,03,47H,0A6H,0D6H,8AH,4BH,64H,1AH
  3B41  35AAFD92C0BFC0	 DB 35H,0AAH,0FDH,92H,0C0H,0BFH,0C0H,00,00,00,01,00
                      	;-------ﾗﾌﾚｼｱﾝ---------
  3B4D  0C085CF8A44098	 DB 0CH,08H,5CH,0F8H,0A4H,40H,98H,38H,68H,0C8H,38H,88H
  3B59  087070188C5C30	 DB 08H,70H,70H,18H,8CH,5CH,30H,30H,60H,0C0H,00H,00H
  3B65  000080C0319153	 DB 00H,00H,80H,0C0H,31H,91H,53H,4FH,2EH,0ABH,0D8H,0F1H
  3B71  E27C2693CBEA96	 DB 0E2H,7CH,26H,93H,0CBH,0EAH,96H,0F7H,0BFH,07H,00H,00H
  3B7D  000000617E1F0E	 DB 00H,00H,00H,61H,7EH,1FH,0EH,71H,79H,1DH,74H,7AH
  3B89  1A31797813767F	 DB 1AH,31H,79H,78H,13H,76H,7FH,1BH,70H,7FH,00H,00H
                      	;-------ﾄﾛﾙ--------------
  3B95  00108024008080	 db 00,10h,80h,24h,00h,80h,80h,80h,80h,0F0h,0BCh,38h
  3BA1  3AF08480000000	 db 3Ah,0F0h,84h,80h,00,00,00,00,80h,20h,00,00
  3BAD  0018143E150A01	 db 00,18h,14h,3Eh,15h,0Ah,01,0E7h,0DFh,0E7h,0FFh
  3BB8  BFBF3E5EE97DFF	 db 0BFh,0BFh,03Eh,5Eh,0E9h,7Dh,0FFh,0F0h,0E0h,0C8h,0D2h,84h,00
  3BC5  00000A00A0C0FE	 db 00,00,0Ah,00,0A0h,0C0h,0FEh,0C9h,0A3h,0FBh,07
  3BD0  073FEFCFAFDEE0	 db 07,3Fh,0EFh,0CFh,0AFh,0DEh,0E0h,83h,07h,27h,07,13h,04
                      	;-------ﾒﾀﾙﾅｲﾄ-----------
  3BDD  0080FE81FE6090	 db 00,80h,0FEh,81h,0FEh,60h,90h,70h,90h,0B6h,49h
  3BE8  9349B6907196E0	 db 93h,49h,0B6h,90h,71h,96h,0E0h,80h,8Ch,0E8h,9Ch,60h,00
  3BF5  00000107DF825F	 db 00,00,01,07,0DFh,82h,5Fh,0A9h,69h,0E9h,57h,48h
  3C01  57E969A95F8001	 db 57h,0E9h,69h,0A9h,5Fh,80h,01,01,00,02,01,00
  3C0D  000080E09CEA39	 db 00,00,80h,0E0h,9Ch,0EAh,39h,0Dh,02,03,05,05
  3C19  0503020D39EA9C	 db 05,03,02,0Dh,39h,0EAh,9Ch,0E0h,80h,00,00,00
                      	;-------ﾋﾞｼｮﾌﾟ-----------
  3C25  00002418E61824	 db 00,00,24h,18h,0E6h,18h,24h,00,00,38h,24h,72h
  3C31  9A4A9A72243800	 db 9Ah,4Ah,9Ah,72h,24h,38h,00,00,00,00,00,00
  3C3D  0050000061FE5C	 db 00,50h,00,00,61h,0FEh,5Ch,32h,19h,1Dh,0FBh
  3C48  75D9A9D9757BB1	 db 75h,0D9h,0A9h,0D9h,75h,7Bh,0B1h,52h,7Eh,00,00,50h,00
  3C55  0004114000611F	 db 00,04,11h,40h,00,61h,1Fh,00,0Ch,0DBh,0AAh,0FAh
  3C61  050409FAAADB0E	 db 05,04,09,0FAh,0AAh,0DBh,0Eh,00,40h,11h,04,00
                      	;-------ﾏｼﾞﾝ-------------
  3C6D  0000F0A8D87080	 db 00,00,0F0h,0A8h,0D8h,70h,80h,40h,22h,26h,0ABh,11h,02h
  3C7A  152EA02020E050	 db 15h,2Eh,0A0h,20h,20h,0E0h,50h,0A8h,0F0h,00,00
  3C85  00FFF55EAB5D5F	 db 00,0FFh,0F5h,05Eh,0ABh,5Dh,5Fh,60h,0CEh,0C9h,0D2h
  3C90  E7AE676E72E958	 db 0E7h,0AEh,67h,06Eh,72h,0E9h,58h,0ACh,57h,0BEh,0D5h,03Eh,00
  3C9D  00070201000000	 db 00,07,02,01,00,00,00,0E0h,70h,2Dh,17h,12h
  3CA9  EC5821120C0300	 db 0ECh,58h,21h,12h,00Ch,03,00,01,02,1Fh,00,00
                      	;-------ﾚｯﾄﾞD------------
  3CB5  5028C6A8D46A34	 db 50h,28h,0C6h,0A8h,0D4h,6Ah,34h,90h,40h,0A0h,0D0h
  3CC0  A8442AAD75AA56	 db 0A8h,44h,2Ah,0ADh,75h,0AAh,56h,0DAh,3Eh,0Fh,07h,03,01
  3CCD  00952BD4792884	 db 00,95h,2Bh,0D4h,79h,28h,84h,51h,0B9h,55h,0B4h
  3CD8  DAFA755657D67F	 db 0DAh,0FAh,75h,56h,57h,0D6h,7Fh,0A8h,50h,0A0h,60h,0C0h,00
  3CE5  000001081C0FDE	 db 00,00,01,08,1Ch,0Fh,0DEh,7Fh,0EAh,77h,0FEh
  3CF0  FF9715151F2BD5	 db 0FFh,97h,15h,15h,1Fh,2Bh,0D5h,6Ah,0F5h,6Ah,0F5h,0DFh,80h
                      	;--------ﾐﾗｰﾅｲﾄ----------
  3CFD  00000000000000	 db 00,00,00,00,00,00,00,00,00,29h,9Eh,97h,0E2h
  3D0A  0AE7FEEBF47020	 db 0Ah,0E7h,0FEh,0EBh,0F4h,70h,20h,00,00,00,00
  3D15  0000000040E050	 db 00,00,00,00,40h,0E0h,50h,0ECh,5Eh,0Fh,0FFh,0CBh
  3D21  A7FBD4FF281F00	 db 0A7h,0FBh,0D4h,0FFh,28h,1Fh,00,00,00,00,00,00
  3D2D  0000001C374A34	 db 00,00,00,1Ch,37h,4Ah,34h,0Fh,00,00,0F9h,0D7h
  3D39  F01C687F400000	 db 0F0h,1Ch,68h,7Fh,40h,00,00,00,00,00,00,00
                      	;--------ｽﾋﾟﾘｯﾄ----------
  3D45  0000008080C0E0	 db 00,00,00,80h,80h,0C0h,0E0h,58h,0C0h,60h,0A0h,50h
  3D51  A858E854A28C70	 db 0A8h,58h,0E8h,54h,0A2h,8Ch,70h,04,42h,02,08,00
  3D5D  00F00F80F0E9DA	 db 00,0F0h,0Fh,80h,0F0h,0E9h,0DAh,0B7h,76h,0E7h,0C5h
  3D68  8142F1E3E2A629	 db 081h,042h,0F1h,0E3h,0E2h,0A6h,29h,60h,50h,40h,08,02,00
  3D75  000103060D1811	 db 00,01,03,06,0Dh,18h,11h,21h,61h,22h,33h,13h
  3D81  0B060F0B131362	 db 0Bh,06,0Fh,0Bh,13h,13h,62h,86h,04h,1Ch,40h,00
                      	;--------ﾙｼﾌﾙ------------
  3D8D  00000080000000	 db 00,00,00,80h,00,00,00,40h,0E0h,0F3h,3Ch,70h
  3D99  3CF3E040000000	 db 3Ch,0F3h,0E0h,040h,00,00,00,80h,00,00,00,00
  3DA5  0000200000F0A8	 db 00,00,20h,00,00,0F0h,0A8h,55h,2Fh,0D7h,0FEh
  3DB0  58DE37DFAD58F0	 db 58h,0DEh,37h,0DFh,0ADh,58h,0F0h,80h,00,20h,00,00,00
  3DBD  000800003FB5EA	 db 00,08,00,00,3Fh,0B5h,0EAh,0FDh,0FFh,3Dh,3Dh,1Dh
  3DC9  1EFFDFFE951A1F	 db 1Eh,0FFh,0DFh,0FEh,95h,1Ah,1Fh,00,00,08,00,00
                      	
  3DD5                	TGRB:
                      	;------ｲｱﾘｽ------------
  3DD5  000000E44800F8	 DB 00,00,00,0E4H,48H,00,0F8H,0E0H,00,48H,24H,80H,60H,30H,28H
  3DE4  A424A45494D868	 DB 0A4H,24H,0A4H,54H,94H,0D8H,68H,0D0H,0A0H,0C0H,00,00,00,00,00
  3DF3  000040820D80FF	 DB 00,00,40H,82H,0DH,80H,0FFH,0FFH,80H,1DH,80H,0C7H,0CEH,0F1H,0EAH
  3E02  E1F1DFCFC699BF	 DB 0E1H,0F1H,0DFH,0CFH,0C6H,99H,0BFH,19H,27H,7BH,06H,00H,00H,80H,00
  3E11  00000000008147	 DB 00,00,00,00,00,81H,47H,07H,05H,05H,07H,83H,0FFH,0FBH,0EDH
  3E20  EAEDFBFF83077F	 DB 0EAH,0EDH,0FBH,0FFH,83H,07H,7FH,0AFH,0ACH,70H,00H,82H,41H,00,00
  3E2F  00000012040801	 DB 00,00,00,12H,04,08,01,42H,60H,58H,5EH,3FH,0FH,0FH,0FH
  3E3E  1F1F1F3F5F5E60	 DB 1FH,1FH,1FH,3FH,5FH,5EH,60H,00,00,10H,08,04,00,00,00
                      	;------ｼﾛｷｼ-------------
  3E4D  000030F8F00000	 db 00,00,30h,0F8h,0F0h,00,00,00,80h,40h,0A0h,0A0h,60h,0B8h,5Ch,0B4h
  3E5D  D4CCB860E02040	 db 0D4h,0CCh,0B8h,60h,0E0h,20h,40h,80h,00,00,18h,7Ch,0F8h,00
  3E6B  00000008070080	 db 00,00,00,08h,07,00,80h,8Eh,79h,0FFh,7Eh,06h,0FDh,0B4h,0ABh
  3E7A  DCABB4A8FD0203	 db 0DCh,0ABh,0B4h,0A8h,0FDh,02,03,0Ch,0F9h,0FEh,0F0h,00,04,03,00
  3E89  40606030180C07	 db 40h,60h,60h,30h,18h,0Ch,07h,03h,03h,00h,0DEh,0FFh,50h,0FDh
  3E97  060C18FEFD4CFF	 db 06h,0Ch,18h,0FEh,0FDh,4Ch,0FFh,06h,00,00,1Fh,17h,1Fh,00,00,00
  3EA7  00000000000000	 db 00,00,00,00,00,00,00,00,18h,1Eh,1Fh,10h,1Fh,07h,00,00,00,00
  3EB9  070E1926380000	 db 07,0Eh,19h,26h,38h,00,00,00,00,00,00,00
                      	;------ｾｯｺｳﾏﾙ-----------
  3EC5  008018C432C834	 DB 00,80H,18H,0C4H,32H,0C8H,34H,0CH,24H,40H,00H,0F8H,0B4H,0AAH,5CH
  3ED4  4AB4AAE85400A0	 DB 4AH,0B4H,0AAH,0E8H,54H,00,0A0H,68H,0F0H,68H,0C0H,0A2H,84H,06H,08H
  3EE3  0001041B7A9F30	 DB 00,01,04,1BH,7AH,9FH,30H,41H,0C2H,40H,0C4H,4FH,0F3H,07H,83H
  3EF2  67D349C6C320F2	 DB 67H,0D3H,49H,0C6H,0C3H,20H,0F2H,7FH,9FH,0FH,3FH,7FH,1FH,3EH,00
  3F01  40800008040509	 DB 40H,80H,00,08H,04,05,09,11H,03H,0F3H,0EEH,0EDH,0AAH,0BDH,0FAH
  3F10  EDAAED3A070168	 DB 0EDH,0AAH,0EDH,3AH,07H,01,68H,90H,00H,61H,0D2H,98H,04,00,00
  3F1F  040B00808EF1F9	 DB 04,0BH,00,80H,8EH,0F1H,0F9H,0FEH,0FFH,3FH,07,03,03,03,23H,0C7H
  3F2F  0F7FFFF8E0C080	 DB 0FH,7FH,0FFH,0F8H,0E0H,0C0H,80H,00,04,06,41H,0D0H,20H,00
                      	;------ｸﾛｷｼ-------------
  3F3D  000030F8F00000	 db 00,00,30h,0F8h,0F0h,00,00,00,80h,40h,0A0h,0A0h,60h,0B8h,5Ch,0B4h
  3F4D  D4CCB860E02040	 db 0D4h,0CCh,0B8h,60h,0E0h,20h,40h,80h,00,00,18h,7Ch,0F8h,00
  3F5B  00000008070080	 db 00,00,00,08h,07,00,80h,8Eh,79h,0FFh,7Eh,06h,0FDh,0B4h,0ABh
  3F6A  DCABB4A8FD0203	 db 0DCh,0ABh,0B4h,0A8h,0FDh,02,03,0Ch,0F9h,0FEh,0F0h,00,04,03,00
  3F79  40606030180C07	 db 40h,60h,60h,30h,18h,0Ch,07h,03h,03h,00h,0DEh,0FFh,50h,0FDh
  3F87  060C18FEFD4CFF	 db 06h,0Ch,18h,0FEh,0FDh,4Ch,0FFh,06h,00,00,1Fh,17h,1Fh,00,00,00
  3F97  00000000000000	 db 00,00,00,00,00,00,00,00,18h,1Eh,1Fh,10h,1Fh,07h,00,00,00,00
  3FA9  070E1926380000	 db 07,0Eh,19h,26h,38h,00,00,00,00,00,00,00
                      	;-------ﾛﾚﾝｽ-------------
  3FB5  00004000000000	 db 00,00,40h,00,00,00,00,00,00,0E0h,0F0h,0F8h,0FCh,7Ch,0FCh
  3FC4  BC7C7CF8F0E000	 db 0BCh,7Ch,7Ch,0F8h,0F0h,0E0h,00,00,00,40h,80h,0E0h,0C0h,00,80h
  3FD3  000080018400C0	 db 00,00,80h,01,84h,00h,0C0h,0E0h,0FFh,0FFh,0F7h,79h,0BAh,0DCh
  3FE1  5ADDBC7AF9FBFF	 db 5Ah,0DDh,0BCh,7Ah,0F9h,0FBh,0FFh,0FFh,0C0h,0C2h,07,8Fh,0DFh,8Fh,57h,00
  3FF1  00009AC797030F	 db 00,00,9Ah,0C7h,97h,03,0Fh,0BFh,0FFh,0FFh,0FFh,0FCh,0BBh,0D6h,0F4h,0D6h
  4001  BBFCFFFFFF7F07	 db 0BBh,0FCh,0FFh,0FFh,0FFh,07Fh,07h,07h,03h,03h,07h,83h,05h,0
  400F  0802234712003C	 db 08,02,23h,47h,12h,00,3Ch,3Fh,0BFh,0FFh,3Fh,0BEh,7Eh,3Fh,3Fh
  401E  3F3E7EBF3FFFB8	 db 3Fh,3Eh,7Eh,0BFh,3Fh,0FFh,0B8h,00,00,00,02,41h,20h,00,04
                      	;-------ﾗｽﾄ--------------
  402D  00000000703EE0	 db 00,00,00,00,70h,3Eh,0E0h,00,00,00,0C0h,28h,0F0h,0D8h,30h
  403C  1818D0F830E0C0	 db 18h,18h,0D0h,0F8h,30h,0E0h,0C0h,0C0h,18h,10h,0F8h,34h,62h,00,00
  404B  0000009ACE7EFF	 db 00,00,00,9Ah,0CEh,07Eh,0FFh,0FFh,0F8h,0F8h,0FCh,0FCh,94h
  4058  050A0A0A0795FF	 db 05,0Ah,0Ah,0Ah,07h,95h,0FFh,0FCh,0F9h,0F9h,0FEh,0FFh,0FFh,9Ah,32h,20h,00
  4069  0000789D0E070F	 db 00,00,78h,9Dh,0Eh,07,0Fh,3Fh,0E7h,0E7h,0FFh,0BFh,4Ah,0F8h,0F8h
  4078  F8F8F84ABFFFE7	 db 0F8h,0F8h,0F8h,04Ah,0BFh,0FFh,0E7h,0E7h,3Fh,0Fh,1Fh,1Dh,0B5h,61h,00
  4087  00000B1E21605E	 db 00,00,0Bh,1Eh,21h,60h,5Eh,1Fh,07h,07h,5Fh,7Ah,65h,3Fh,1Fh
  4096  1F1F3F657A471F	 db 1Fh,1Fh,3Fh,65h,7Ah,47h,1Fh,1Fh,1Fh,1Ch,40h,73h,1Dh,0Eh,00
                      	
                      	;---------MAP DATA-------------------
                      	
  40A5                	 DS 10;SMPﾉｲﾁﾌﾞ
  40AF                	SMP:DS 90
  4109                	MAPM:DS 10
  4113                	MPD1:
  4113  2F8D4505450523	 DB 2FH,8DH,45H,5,45H,5,23H,8FH
  411B  0505150719030A	 DB 5,5,15H,7,19H,3,0AH,9
  4123  090505030C060A	 DB 9,5,5,3,0CH,6,0AH,4EH
  412B  0A09130C05278E	 DB 0AH,9,13H,0CH,5,27H,8EH,1FH
  4133  0A0C060D050101	 DB 0AH,0CH,6,0DH,5,1,1,7
  413B  0A09050309060A	 DB 0AH,09H,05H,03H,09H,06H,0AH,0BH
  4143  2A8E0B0E0A0904	 DB 2AH,8EH,0BH,0EH,0AH,09H,04H,06H
  414B  0C050405060C05	 DB 0CH,05H,04H,05H,06H,0CH,05H,07H
                      	;MPD2:
  4153  2F8D0309050789	 DB 2FH,8DH,03H,09H,05H,07H,89H,03H
  415B  0905060A0B1F02	 DB 09H,05H,06H,0AH,0BH,1FH,02H,0AH
  4163  064D05060A0B0E	 DB 06H,4DH,05H,06H,0AH,0BH,0EH,0CH
  416B  23FF8D01020C05	 DB 23H,255,8DH,01H,02H,0CH,05H,05H
  4173  0A1B0B0A0C0105	 DB 0AH,1BH,0BH,0AH,0CH,01H,05H,03H
  417B  0A0A0A0E0B4C07	 DB 0AH,0AH,0AH,0EH,0BH,4CH,07H,0AH
  4183  0E0A0C032ADF0D	 DB 0EH,0AH,0CH,03H,2AH,223,0DH,46H
  418B  2F8C270C061D27	 DB 2FH,8CH,27H,0CH,06H,1DH,27H,8FH
                      	;MPD3:
  4193  0B2B8B2B8F0905	 DB 0BH,2BH,8BH,2BH,8FH,09H,05H,03H
  419B  0A0A0A2A0D060B	 DB 0AH,0AH,0AH,2AH,0DH,06H,0BH,0AH
  41A3  0A0A0C260D0103	 DB 0AH,0AH,0CH,26H,0DH,01H,03H,0BH
  41AB  0C268D278F4F4F	 DB 0CH,26H,8DH,27H,8FH,4FH,4FH,4FH
  41B3  1B0905071F0F4F	 DB 1BH,09H,05H,07H,1FH,0FH,4FH,0FH
  41BB  0E0A09071FEFFF	 DB 0EH,0AH,09H,07H,1FH,0EFH,0FFH,2FH
  41C3  09268E0BEFDFFF	 DB 09H,26H,8EH,0BH,0EFH,0DFH,0FFH,1FH
  41CB  0C0505064FBF6F	 DB 0CH,05H,05H,06H,4FH,0BFH,6FH,0FH
                      	;MPD4:
  41D3  05050309050523	 DB 05H,05H,03H,09H,05H,05H,23H,89H
  41DB  09070E0A09070E	 DB 09H,07H,0EH,0AH,09H,07H,0EH,0AH
  41E3  080505060C278B	 DB 08H,05H,05H,06H,0CH,27H,8BH,0AH
  41EB  0C0505278B0B0C	 DB 0CH,05H,05H,27H,8BH,0BH,0CH,06H
  41F3  090505030A0E0D	 DB 09H,05H,05H,03H,0AH,0EH,0DH,03H
  41FB  0A2B8F0E0C0503	 DB 0AH,2BH,8FH,0EH,0CH,05H,03H,0AH
  4203  0A0A0B0945032E	 DB 0AH,0AH,0BH,09H,45H,03H,2EH,8AH
  420B  0C0404061F0C05	 DB 0CH,04H,04H,06H,1FH,0CH,05H,06H
                      	;MPD5
  4213  4F090309030905	 DB 4FH,09H,03H,09H,03H,09H,05H,03H
  421B  1D060C060C060D	 DB 1DH,06H,0CH,06H,0CH,06H,0DH,02H
  4223  0505238F2F8D01	 DB 05H,05H,23H,8FH,2FH,8DH,01H,00H
  422B  090308031F2B8E	 DB 09H,03H,08H,03H,1FH,2BH,8EH,0EH
  4233  0A0C00060B4E0D	 DB 0AH,0CH,00H,06H,0BH,4EH,0DH,03H
  423B  00010401021903	 DB 00H,01H,04H,01H,02H,19H,03H,08H
  4243  0E0C010400060A	 DB 0EH,0CH,01H,04H,00H,06H,0AH,0AH
  424B  0D050405040504	 DB 0DH,05H,04H,05H,04H,05H,04H,06H
                      	;MPD6
  4253  0D050101010505	 DB 0DH,05H,01H,01H,01H,05H,05H,03H
  425B  0B09060E0A0D03	 DB 0BH,09H,06H,0EH,0AH,0DH,03H,0AH
  4263  0A0C070D04030A	 DB 0AH,0CH,07H,0DH,04H,03H,0AH,0AH
  426B  0A09030B0B0A0A	 DB 0AH,09H,03H,0BH,0BH,0AH,0AH,0AH
  4273  0A0A0A0E0E0C06	 DB 0AH,0AH,0AH,0EH,0EH,0CH,06H,0AH
  427B  08060E0B09030B	 DB 08H,06H,0EH,0BH,09H,03H,0BH,0AH
  4283  0A0D15060E0C26	 DB 0AH,0DH,15H,06H,0EH,0CH,26H,0AH
  428B  0C050505050505	 DB 0CH,05H,05H,05H,05H,05H,05H,06H
                      	;MPD7
  4293  0845278F090505	 DB 08H,45H,27H,8FH,09H,05H,05H,07H
  429B  020D0105060902	 DB 02H,0DH,01H,05H,06H,09H,02H,0BH
  42A3  09030A09278E0A	 DB 09H,03H,0AH,09H,27H,8EH,0AH,0AH
  42AB  0A0A0A0A2B8B0C	 DB 0AH,0AH,0AH,0AH,2BH,8BH,0CH,02H
  42B3  0A0C020E0A0801	 DB 0AH,0CH,02H,0EH,0AH,08H,01H,02H
  42BB  0D474E09060905	 DB 0DH,47H,4EH,09H,06H,09H,05H,03H
  42C3  1F19130E090209	 DB 1FH,19H,13H,0EH,09H,02H,09H,06H
  42CB  1B0C0405060E0C	 DB 1BH,0CH,04H,05H,06H,0EH,0CH,07H
                      	;MPD8
  42D3  0B09010309038B	 DB 0BH,09H,01H,03H,09H,03H,8BH,0FH
  42DB  08060800060A0C	 DB 08H,06H,08H,00H,06H,0AH,0CH,47H
  42E3  0805222A8D4405	 DB 08H,05H,22H,2AH,8DH,44H,05H,13H
  42EB  0A09060807FFFF	 DB 0AH,09H,06H,08H,07H,255,255,0AH
  42F3  0A2A0D020F7FFF	 DB 0AH,2AH,0DH,02H,0FH,7FH,255,0EH
  42FB  0A0C0308050105	 DB 0AH,0CH,03H,08H,05H,01H,05H,03H
  4303  0A0B0A0C034E09	 DB 0AH,0BH,0AH,0CH,03H,4EH,09H,06H
  430B  0C040405061F0C	 DB 0CH,04H,04H,05H,06H,1FH,0CH,07H
                      	;MPD9
  4313  09450101010145	 DB 09H,45H,01H,01H,01H,01H,45H,03H
  431B  0A1F080000021F	 DB 0AH,1FH,08H,00H,00H,02H,1FH,0AH
  4323  0C010002080001	 DB 0CH,01H,00H,02H,08H,00H,01H,06H
  432B  1F080402080402	 DB 1FH,08H,04H,02H,08H,04H,02H,1FH
  4333  0906090208030C	 DB 09H,06H,09H,02H,08H,03H,0CH,03H
  433B  0A09020C060803	 DB 0AH,09H,02H,0CH,06H,08H,03H,0AH
  4343  0C040005050004	 DB 0CH,04H,00H,05H,05H,00H,04H,06H
  434B  0D070C0505060D	 DB 0DH,07H,0CH,05H,05H,06H,0DH,07H
                      	;MPD10
  4353  4F0D05030D0309	 DB 4FH,0DH,05H,03H,0DH,03H,09H,03H
  435B  1D05030C470A0E	 DB 1DH,05H,03H,0CH,47H,0AH,0EH,0AH
  4363  0D010005470C03	 DB 0DH,01H,00H,05H,47H,0CH,03H,0AH
  436B  0B0A4E0B4F0B0A	 DB 0BH,0AH,4EH,0BH,4FH,0BH,0AH,0AH
  4373  0A0A1D069F0A0A	 DB 0AH,0AH,1DH,06H,9FH,0AH,0AH,0AH
  437B  0C00270D05460A	 DB 0CH,00H,27H,0DH,05H,46H,0AH,0AH
  4383  2B8C038D05078A	 DB 2BH,8CH,03H,8DH,05H,07H,8AH,0AH
  438B  0C27AE0D050526	 DB 0CH,27H,174,0DH,05H,05H,26H,8EH
                      	;MPD11
  4393  0D010505030A0A	 db 0dh,01h,05h,05h,03h,0ah,0ah,1fh
  439B  05060D0100060C	 db 05h,06h,0dh,01h,00h,06h,0ch,05h
  43A3  090709060A0B09	 db 09h,07h,09h,06h,0ah,0bh,09h,03h
  43AB  0805060D060806	 db 08h,05h,06h,0dh,06h,08h,06h,0ah
  43B3  040105030B0803	 db 04h,01h,05h,03h,0bh,08h,03h,0ch
  43BB  030E0D0608060E	 db 03h,0eh,0dh,06h,08h,06h,0eh,09h
  43C3  0C030905040709	 db 0ch,03h,09h,05h,04h,07h,09h,06h
  43CB  05060C070D030A	 db 05h,06h,0ch,07h,0dh,03h,0ah,4dh
                      	;MPD12
  43D3  5F0D0107094403	 DB 5FH,0DH,01H,07H,09H,44H,03H,1BH
  43DB  19010405061B0C	 DB 19H,01H,04H,05H,06H,1BH,0CH,02H
  43E3  0A0C030D050003	 DB 0AH,0CH,03H,0DH,05H,00H,03H,0EH
  43EB  060D0209030A08	 DB 06H,0dH,02H,09H,03H,0AH,08H,05H
  43F3  0D030A0C460C00	 DB 0DH,03H,0aH,0CH,46H,0CH,00H,03H
  43FB  030800079F0906	 DB 03H,08H,00H,07H,9FH,09H,06H,08H
  4403  0A0A0C01010001	 DB 0AH,0AH,0CH,01H,01H,00H,01H,46H
  440B  4E0C05060E0A0E	 DB 4EH,0CH,05H,06H,0EH,0AH,0EH,1FH
                      	;MPD13
  4413  0B0B0905010127	 db 0bh,0bh,09h,05h,01h,01h,27h,0ah
  441B  2A8E0C030E0A0B	 db 2ah,8eh,0ch,03h,0eh,0ah,0bh,0ch
  4423  0A0D01060B0A08	 db 0ah,0dh,01h,06h,0bh,0ah,08h,03h
  442B  2A8D020B0A0E0E	 db 2ah,8dh,02h,0bh,0ah,0eh,0eh,0ah
  4433  0A0D060C000709	 db 0ah,0dh,06h,0ch,00h,07h,09h,02h
  443B  2A8F0D05060906	 db 2ah,8fh,0dh,05h,06h,09h,06h,0eh
  4443  0A0E464D45064D	 db 0ah,0eh,46h,4dh,45h,06h,4dh,03h
  444B  2E8D15051D0517	 db 2eh,8dh,15h,05h,1dh,05h,17h,0ah
                      	;MPD14
  4453  0F2B0D05010505	 DB 0fh,2bh,0dh,05h,01h,05h,05h,03h
  445B  0D068901040503	 DB 0dh,06h,89h,01h,04h,05h,03h,0ah
  4463  0D030A0C030B8E	 DB 0dh,03h,0ah,0ch,03h,0bh,8eh,0ah
  446B  0500060B0A0007	 DB 05h,00h,06h,0bh,0ah,00h,07h,00h
  4473  2F88050E020E89	 DB 2fh,88h,05h,0eh,02h,0eh,89h,02h
  447B  0B0C074F080102	 DB 0bh,0ch,07h,4fh,08h,01h,02h,0ah
  4483  0C030D11060A0A	 DB 0ch,03h,0dh,11h,06h,0ah,0ah,0eh
  448B  2F8C05062F8E2E	 DB 2fh,8ch,05h,06h,2fh,8eh,2eh,8fh
                      	;MPD15
  4493  2B890505050505	 DB 2bh,89h,05h,05h,05h,05h,05h,07h
  449B  0A0A0B09030903	 DB 0ah,0ah,0bh,09h,03h,09h,03h,0bh
  44A3  0A0A0A0A0A0A0A	 DB 0ah,0ah,0ah,0ah,0ah,0ah,0ah,0ah
  44AB  8A0E0A0A0A0A0A	 DB 8ah,0eh,0ah,0ah,0ah,0ah,0ah,2ah
  44B3  0A0B0A0A0A0A0A	 DB 0ah,0bh,0ah,0ah,0ah,0ah,0ah,0ah
  44BB  0A0A0A0A0A0A0A	 DB 0ah,0ah,0ah,0ah,0ah,0ah,0ah,0ah
  44C3  0A0A0C060C060C	 DB 0ah,0ah,0ch,06h,0ch,06h,0ch,06h
  44CB  2E8C0505050505	 DB 2eh,8ch,05h,05h,05h,05h,05h,07h
                      	
                      	;-------IVENT DATA----------
                      	
                      	;-------ｲﾍﾞﾝﾄ---------
                      	
                      	;1:PRINT "ｾﾞｳｽｼﾝﾃﾞﾝ"
                      	;2:MISE1
                      	;3:CALL ｶｲﾌｸﾔ
                      	;4:WAPU 1,0
                      	;5:ﾌﾛｱｱｯﾌﾟ
                      	;6:ﾌﾛｱﾀﾞｳﾝ
                      	;7:ｵﾄｼｱﾅ
                      	;8:GOLD 200G
                      	;9:MS ﾐﾙｺﾄ
                      	;A:MS ﾕｶｶﾗ
                      	;B:WAPU 4,0
                      	;C:WAPU 4,3
                      	;D:WAPU 5,4
                      	;E:WAPU 7,4
                      	;F:WAPU 6,1
                      	;10:PRINT "案内"
                      	;11:ｶｷﾞ1,ｶｷﾞ本体
                      	;12:ｶｷﾞのありか
                      	;13:TALK ﾗｽﾄ
                      	;14:BOSS ｲｱﾘｽ
                      	;15:MISE2
                      	;16:ITEM ｻﾝﾀﾞｱｰﾏｰ
                      	;17:600G
                      	;18:固定 ｼﾛｷｼ
                      	;19:ﾌｳｲﾝｦﾄｸｶｷﾞ
                      	;1A:動く床(ｽｲｯﾁ)
                      	;1B:WAPU 0,6
                      	;1C:WAPU 7,7
                      	;1D:ITEM ﾘﾀﾝｽﾄｰﾝ
                      	;1E:ITEM ｱｲｽｼｰﾙﾄﾞ
                      	;1F:ｽｲｯﾁ2,ｽｲｯﾁ本体
                      	;20:ｶｷﾞ3
                      	;21:ｶｷﾞ1ﾋﾝﾄ
                      	;22:ﾀﾞﾒｰｼﾞ床
                      	;23:ｽｲｯﾁ 2F
                      	;24:封印扉2F
                      	;25:ｷﾞﾝﾉｶﾀﾏﾘ
                      	;26:ｲﾉﾁﾉｵｰﾌﾞ
                      	;27:MS 伝説の武具
                      	;28:ITEM 封印のカギ
                      	;29:すりぬけ上
                      	;2A:命のオーブ
                      	;2B:月夜の薬
                      	;2C:鍛冶屋ﾀﾞｲ
                      	;2D:伝説の盾
                      	;2E:ｾｯｺｳﾏﾙ
                      	;2F:6F TO 8F
                      	;30:8F TO 6F
                      	;31:回転の間に宝あり
                      	;32:回転床
                      	;33:ｱﾉﾖﾉｸｽﾘ
                      	;34:スルー習得
                      	;35:すり抜け下
                      	;36:封印扉
                      	;37:ﾌｳｲﾝｽｲｯﾁ
                      	;38:ﾀﾞｲﾀﾛｽﾒｯｾｰｼﾞ
                      	;39:回転の間左上
                      	;3A:回転の間左下
                      	;3B:回転の間右上
                      	;3C:回転の間右下
                      	;3D:回転の間の幸
                      	;3E:8F TO 10F
                      	;3F:ｱﾐｭﾚｯﾄ
                      	;40:FL9 MS1
                      	;41:ｾﾞｳｽﾉﾖﾛｲ
                      	;42:10F TO 8F
                      	;43:心の神
                      	;44:ｴｸｽｶﾘﾊﾞｰ
                      	;45:ｸﾛｷｼ
                      	;46:10000G
                      	;47:;歩いたところに戻す封印	;flag+43
                      	;48:;12f to 13f
                      	;49:;12F 本4
                      	;4A:;ｺﾝﾊﾟｽ　(封印されている)
                      	;4B:;daitaros,IV4Aと連動
                      	;4C:;13f to 12f
                      	;4D:;MS 14F壁のヒント
                      	;4E:;月夜の薬
                      	;4F:;歩いたところに戻すｽｲｯﾁ
                      	;50:ﾏﾎｳﾉﾗﾝﾌﾟ	5F
                      	;51:本1	4F
                      	;52:本2	?F
                      	;53:ﾏﾖｹﾉｵｺｳ	8F
                      	;54:MISE4
                      	;55:;ﾒｶﾞﾐｿﾞｳ
                      	;56:;困った人 ﾊｳﾚﾝの書（3）
                      	;57:;ALES IS ZAPED TO 6F! LAST1
                      	;58:;15PUZZLE
                      	;59:;ダークゾーン
                      	;5A:;ﾛﾚﾝｽ
                      	;5B:;１４階のﾌｳｲﾝ
                      	;5C:;14F 賢者ﾌｧﾙ
                      	;5D:;14F 賢者ｳｨﾙ
                      	;5E:;14F ﾊｳﾚﾝ1世
                      	;5F:;14F ﾀﾞｲﾀﾛｽ
                      	;60:;守護の壁
                      	;61:;守護1
                      	;62:;守護2
                      	;63:;ﾗｽﾄM1
                      	;64:;ﾗｽﾄM2
                      	;65:;ﾗｽﾄﾊﾞﾄﾙ
                      	
                      	
                      	
  44D3                	IVENT:;X,Y,NO.
  44D3  0001          	 DB 00H,1
  44D5  2010          	 DB 20H,10H
  44D7  7002          	 DB 70H,2
  44D9  7303          	 DB 73H,3
  44DB  3404          	 DB 34H,4
  44DD  7705          	 DB 77H,5
  44DF  7512          	 DB 75H,12H
  44E1  4213          	 DB 42H,13H
  44E3  2426          	 DB 24H,26H
  44E5  3628          	 DB 36H,28H
  44E7  FF            	 DB 0FFH
                      	;IVENT2:
  44E8  5118          	 DB 51H,18H
  44EA  5209          	 DB 52H,9
  44EC  240A          	 DB 24H,0AH
  44EE  3507          	 DB 35H,7
  44F0  0005          	 DB 00H,5
  44F2  7706          	 DB 77H,6
  44F4  0608          	 DB 06H,8
  44F6  131A          	 DB 13H,1AH	;注
  44F8  0723          	 DB 07H,23H
  44FA  1024          	 DB 10H,24H
  44FC  FF            	 DB 0FFH
  44FD                	IVENT3:
  44FD  6121          	 DB 61H,21H
  44FF  430B          	 DB 43H,0BH
  4501  540C          	 DB 54H,0CH
  4503  740D          	 DB 74H,0DH
  4505  770E          	 DB 77H,0EH
  4507  0006          	 DB 00H,6
  4509  340F          	 DB 34H,0FH
  450B  3505          	 DB 35H,5
  450D  1611          	 DB 16H,11H
  450F  2514          	 DB 25H,14H
  4511  7606          	 DB 76H,6
  4513  FF            	 DB 0FFH
                      	;IVENT4:
  4514  3506          	 DB 35H,6
  4516  2515          	 DB 25H,15H
  4518  2616          	 DB 26H,16H
  451A  4703          	 DB 47H,3
  451C  6105          	 DB 61H,5
  451E  4320          	 DB 43H,20H
  4520  5119          	 DB 51H,19H
  4522  6405          	 DB 64H,5
  4524  5351          	 DB 53H,51H
  4526  FF            	 DB 0FFH
                      	;IVENT5:
  4527  3217          	 DB 32H,17H
  4529  4218          	 DB 42H,18H
  452B  721A          	 DB 72H,1AH
  452D  671A          	 DB 67H,1AH
  452F  751A          	 DB 75H,1AH
  4531  451A          	 DB 45H,1AH
  4533  461A          	 DB 46H,1AH
  4535  361A          	 DB 36H,1AH
  4537  241A          	 DB 24H,1AH
  4539  251A          	 DB 25H,1AH
  453B  261A          	 DB 26H,1AH
  453D  151A          	 DB 15H,1AH
  453F  041A          	 DB 04H,1AH
  4541  051A          	 DB 05H,1AH
  4543  561B          	 DB 56H,1BH
  4545  441C          	 DB 44H,1CH
  4547  021C          	 DB 02H,1CH
  4549  071D          	 DB 07H,1DH
  454B  731E          	 DB 73H,1EH
  454D  651F          	 DB 65H,1FH
  454F  6406          	 DB 64H,6
  4551  6106          	 DB 61H,6
  4553  0005          	 DB 00H,5
  4555  4350          	 DB 43H,50H
  4557  FF            	 DB 0FFH
                      	;IVENT6:
  4558  0006          	 DB 00H,6
  455A  7005          	 DB 70H,5
  455C  7705          	 DB 77H,5
  455E  0705          	 DB 07H,5
  4560  3405          	 DB 34H,5
  4562  2256          	 DB 22H,56H
  4564  3527          	 DB 35H,27H
  4566  4729          	 DB 47H,29H
  4568  652A          	 DB 65H,2AH
  456A  312B          	 DB 31H,2BH
  456C  1022          	 DB 10H,22H
  456E  2022          	 DB 20H,22H
  4570  3022          	 DB 30H,22H
  4572  4022          	 DB 40H,22H
  4574  5022          	 DB 50H,22H
  4576  6022          	 DB 60H,22H
  4578  7122          	 DB 71H,22H
  457A  7222          	 DB 72H,22H
  457C  7322          	 DB 73H,22H
  457E  7422          	 DB 74H,22H
  4580  7522          	 DB 75H,22H
  4582  7622          	 DB 76H,22H
  4584  6722          	 DB 67H,22H
  4586  5722          	 DB 57H,22H
  4588  3722          	 DB 37H,22H
  458A  2722          	 DB 27H,22H
  458C  1722          	 DB 17H,22H
  458E  0622          	 DB 06H,22H
  4590  0522          	 DB 05H,22H
  4592  0422          	 DB 04H,22H
  4594  5125          	 DB 51H,25H
  4596  332F          	 DB 33H,2FH
  4598  0155          	 DB 01H,55H
  459A  FF            	 DB 0FFH
                      	;IVENT7:
  459B  7006          	 DB 70H,6
  459D  7706          	 DB 77H,6
  459F  0706          	 DB 07H,6
  45A1  3406          	 DB 34H,6
  45A3  1607          	 DB 16H,7
  45A5  302C          	 DB 30H,2CH
  45A7  362D          	 DB 36H,2DH
  45A9  332E          	 DB 33H,2EH
  45AB  FF            	 DB 0FFH
                      	;IVENT8:
  45AC  4438          	 DB 44H,38H
  45AE  773E          	 DB 77H,3EH
  45B0  5339          	 DB 53H,39H
  45B2  543A          	 DB 54H,3AH
  45B4  633B          	 DB 63H,3BH
  45B6  643C          	 DB 64H,3CH
  45B8  0030          	 DB 00H,30H
  45BA  1631          	 DB 16H,31H
  45BC  2032          	 DB 20H,32H
  45BE  3132          	 DB 31H,32H
  45C0  5332          	 DB 53H,32H
  45C2  5432          	 DB 54H,32H
  45C4  6332          	 DB 63H,32H
  45C6  6432          	 DB 64H,32H
  45C8  5733          	 DB 57H,33H
  45CA  7434          	 DB 74H,34H
  45CC  4335          	 DB 43H,35H
  45CE  321A          	 DB 32H,1AH
  45D0  421A          	 DB 42H,1AH
  45D2  521A          	 DB 52H,1AH
  45D4  341A          	 DB 34H,1AH
  45D6  241A          	 DB 24H,1AH
  45D8  5037          	 DB 50H,37H
  45DA  6036          	 DB 60H,36H
  45DC  7053          	 DB 70H,53H
  45DE  FF            	 DB 0FFH
                      	;IVENT9:
  45DF  1705          	 DB 17H,5
  45E1  6705          	 DB 67H,5
  45E3  7346          	 DB 73H,46H
  45E5  353F          	 DB 35H,3FH
  45E7  0740          	 DB 07H,40H
                      	;DB 03H,	ほかの宝を入れる
  45E9  FF            	 DB 0FFH
                      	;IVENTA:
  45EA  4052          	 DB 40H,52H
  45EC  3342          	 DB 33H,42H
  45EE  0145          	 DB 01H,45H
  45F0  0345          	 DB 03H,45H
  45F2  1043          	 DB 10H,43H
  45F4  0041          	 DB 00H,41H	;ｾﾞｳｽの鎧
  45F6  0707          	 DB 07H,7
  45F8  2232          	 DB 22H,32H
  45FA  4229          	 DB 42H,29H
  45FC  6105          	 DB 61H,5
  45FE  FF            	 DB 0FFH
                      	;IVENTB:
  45FF  6106          	 DB 61H,6
  4601  3705          	 DB 37H,5
  4603  7747          	 db 77h,47h	;戻し床
  4605  3345          	 DB 33H,45H
  4607  5654          	 DB 56H,54H
  4609  2558          	 DB 25H,58H
  460B  705A          	 db 70h,5Ah	;boss
  460D  FF            	 DB 0FFH
                      	;IVENTC:
  460E  3706          	 DB 37H,6
  4610  3359          	 DB 33H,59H
  4612  3459          	 DB 34H,59H
  4614  4359          	 DB 43H,59H
  4616  4459          	 DB 44H,59H
  4618  3348          	 DB 33H,48h
  461A  2049          	 db 20h,49h
  461C  134A          	 db 13h,4ah
  461E  7703          	 db 77h,3
  4620  004D          	 db 00h,4dh		;MS 囲まれた部屋
  4622  4629          	 db 46h,29h
  4624  FF            	 DB 0FFH
                      	;IVENTD:
  4625  004C          	 db 00h,4ch
  4627  104B          	 db 10h,4bh
  4629  3047          	 db 30h,47h	;戻し床
  462B  3307          	 db 33h,7
  462D  5407          	 db 54h,7
  462F  614E          	 db 61h,4eh		;月夜の薬
  4631  5305          	 db 53h,5
  4633  424F          	 db 42h,4fh		;ｽｲｯﾁ
  4635  FF            	 DB 0FFH
                      	;IVENTE:
  4636  3544          	 DB 35H,44H		;ｴｸｽｶｲﾊﾞｰ
  4638  0005          	 DB 00H,5
  463A  5306          	 DB 53H,6
  463C  1032          	 db 10h,32h		;回転床
  463E  1132          	 db 11h,32h		;回転床
  4640  1232          	 db 12h,32h		;回転床
  4642  1632          	 db 16h,32h		;回転床
  4644  2232          	 db 22h,32h		;回転床
  4646  2532          	 db 25h,32h		;回転床
  4648  3132          	 db 31h,32h		;回転床
  464A  3732          	 db 37h,32h		;回転床
  464C  4032          	 db 40h,32h		;回転床
  464E  4132          	 db 41h,32h		;回転床
  4650  4332          	 db 43h,32h		;回転床
  4652  4532          	 db 45h,32h		;回転床
  4654  5632          	 db 56h,32h		;回転床
  4656  6132          	 db 61h,32h		;回転床
  4658  6232          	 db 62h,32h		;回転床
  465A  6632          	 db 66h,32h		;回転床
  465C  7032          	 db 70h,32h		;回転床
  465E  7432          	 db 74h,32h		;回転床
  4660  7632          	 db 76h,32h		;回転床
  4662  3307          	 db 33h,7		;落し穴
  4664  145B          	 db 14h,5bh		;ﾌｳｲﾝ
  4666  175B          	 db 17h,5bh		;ﾌｳｲﾝ
  4668  215B          	 db 21h,5bh		;ﾌｳｲﾝ
  466A  365B          	 db 36h,5bh		;ﾌｳｲﾝ
  466C  575B          	 db 57h,5bh		;ﾌｳｲﾝ
  466E  675B          	 db 67h,5bh		;ﾌｳｲﾝ
  4670  775C          	 db 77h,5ch		;fal
  4672  475D          	 db 47h,5dh		;wil
  4674  075E          	 db 07h,5eh		;houlen
  4676  045F          	 db 04h,5fh		;daitaros
  4678  0129          	 db 01h,29h		;隠し通路
  467A  FF            	 DB 0FFH
                      	;IVENTF:
  467B  2257          	 DB 22H,57H		;zap
  467D  0360          	 db 03h,60h
  467F  0006          	 DB 00H,6
  4681  7061          	 db 70h,61h
  4683  7762          	 db 77h,62h
  4685  4163          	 db 41h,63h
  4687  3664          	 db 36h,64h
  4689  2165          	 db 21h,65h		;last
  468B  FF            	 DB 0FFH
                      	
                      	;60:;守護の壁
                      	;61:;守護1
                      	;62:;守護2
                      	;63:;ﾗｽﾄM1
                      	;64:;ﾗｽﾄM2
                      	;65:;ﾗｽﾄﾊﾞﾄﾙ
                      	
                      	;------IVENT LIST-----------------
                      	
  468C                	IV1:;MS "ｶﾝﾊﾞﾝ"
  468C  217861        	 LD HL,IVENTM
  468F  0E12          	 LD C,18
  4691  CD3319        	 CALL MSOP
  4694  3A9163        	 ld A,(flag+3bh)
  4697  17            	 rla
  4698  D21705        	 JP nc,RETSAC
                      	;**********ENDING************
  469B  E1            	 pop HL
  469C  CD3E17        	 call tim255
  469F  21BE46        	 ld HL,ENDMES
  46A2  0E12          	 ld C,18
  46A4  CD2F19        	 call mso
  46A7  3E01          	 ld A,1
  46A9  D367          	 out (67h),A
  46AB  3E05          	 ld A,5
  46AD  CD2117        	 call flashn
  46B0  0606          	 ld B,6
  46B2  CD1C1A        	 call GRD
  46B5  CD3E17        	 call tim255
  46B8  CD3E17        	 call tim255
  46BB  C3A563        	 jp ENDING
  46BE                	ENDMES:
  46BE  B1DABDCA2020C4	 db "ｱﾚｽﾊ  ","ﾄﾋﾞﾗｦ ","ｱｹﾀ･･･"
                      	
  46D0                	IV2:		;MISEYA
  46D0  214660        	 LD HL,MISE1
  46D3                	MISEJ:
  46D3  E5            	 PUSH HL
  46D4  21A32F        	 LD HL,MISEG
  46D7  CDDD25        	 CALL OPNG
  46DA  216447        	 LD HL,IV2MS
  46DD  0E18          	 LD C,24
  46DF  CD4B19        	 CALL MSO2
  46E2  E1            	 POP HL
  46E3                	MISEJ2:
  46E3  E5            	 PUSH HL
  46E4  CD511A        	 CALL GRO
  46E7  AF            	 XOR A
  46E8  32FF00        	 LD (0FFH),A
  46EB  E1            	 POP HL
  46EC  F1            	 POP AF
  46ED  221947        	 LD (BUYAD+1),HL
  46F0  217C47        	 LD HL,IV2MS+24
  46F3  0E12          	 LD C,18
  46F5  CD3319        	 CALL MSOP
  46F8  CDD918        	 CALL CURSOL
  46FB                	IV2MIN:
  46FB  3AF300        	 LD A,(0F3H)
  46FE  FE02          	 CP 2
  4700  3806          	 JR C,BUY
  4702  CA3247        	 JP Z,SELL
  4705  C34D47        	 JP IV2RET
  4708                	BUY:
  4708  3E01          	 LD A,1
  470A  32FF00        	 LD (0FFH),A
  470D  216762        	 LD HL,ITEM
  4710  11D02C        	 LD DE,FREE
  4713  010B00        	 LD BC,11
  4716  EDB0          	 LDIR
  4718                	BUYAD:
  4718  210000        	 LD HL,0	;ｶｷｶｴ
  471B  116762        	 LD DE,ITEM
  471E  0E0B          	 LD C,11
  4720  EDB0          	 LDIR
  4722                	BUYL1:
  4722  CDB706        	 CALL BUYSEL
  4725  7E            	 LD A,(HL)
  4726  FE0F          	 CP 0FH
  4728  2818          	 JR Z,BUYEND
  472A  CD9447        	 CALL BYSLG
  472D  CD4318        	 CALL CURD2;GRPD
  4730  18F0          	 JR BUYL1
  4732                	SELL:
  4732  CDB706        	 CALL BUYSEL
  4735  7E            	 LD A,(HL)
  4736  FE0F          	 CP 0FH
  4738  2813          	 JR Z,IV2RET
  473A  CD9447        	 CALL BYSLG
  473D  CD4318        	 CALL CURD2;GRPD
  4740  18F0          	 JR SELL
  4742                	BUYEND:
  4742  21D02C        	 LD HL,FREE
  4745  116762        	 LD DE,ITEM
  4748  010B00        	 LD BC,11
  474B  EDB0          	 LDIR
  474D                	IV2RET:
  474D  218E47        	 LD HL,IV2MS+42
  4750  0E06          	 LD C,6
  4752  CD2F19        	 CALL MSO
  4755  3A7462        	 LD A,(X)
  4758  3D            	 DEC A
  4759  327462        	 LD (X),A
  475C  3E54          	 LD A,54H
  475E  32F800        	 LD (0F8H),A
  4761  C3EA01        	 JP START
  4764                	IV2MS:
  4764  B2D7AFBCACB2BB	 DB "ｲﾗｯｼｬｲ","ｻｧ､   ","ﾐﾃｲｯﾃ ","ｸﾚ    "
  477C  20B6B320202020	 DB " ｶｳ   "," ｳﾙ   "," ﾓﾄﾞﾙ ","ｱﾘｶﾞﾄｳ"
  4794                	BYSLG:
  4794  E5            	 PUSH HL
  4795  F5            	 PUSH AF
  4796  17            	 RLA
  4797  380F          	 JR C,BYSLIT
  4799  17            	 RLA
  479A  DA1D48        	 JP C,BYSLAR
  479D  17            	 RLA
  479E  DA2248        	 JP C,BYSLSH
  47A1  17            	 RLA
  47A2  DA2748        	 JP C,BYSLSW
  47A5                	BYSLRP:
  47A5  F1            	 POP AF
  47A6  E1            	 POP HL
  47A7  C9            	 RET
  47A8                	BYSLIT:
  47A8  17            	 RLA
  47A9  38FA          	 JR C,BYSLRP
  47AB  219E48        	 LD HL,BYSLP1
  47AE                	BYSLL1:
  47AE  F1            	 POP AF
  47AF  3D            	 DEC A
  47B0  E60F          	 AND 0FH
  47B2  07            	 RLCA
  47B3  1600          	 LD D,0
  47B5  5F            	 LD E,A
  47B6  19            	 ADD HL,DE
  47B7  5E            	 LD E,(HL)	;ﾈﾀﾞﾝ	+1
  47B8  23            	 INC HL
  47B9  56            	 LD D,(HL)
  47BA  EB            	 EX DE,HL
  47BB  3AFF00        	 LD A,(0FFH)
  47BE  FE01          	 CP 1
  47C0  206A          	 JR NZ,BYSLSL
  47C2                	BYSLBY:
  47C2  E5            	 PUSH HL
  47C3  CDD619        	 CALL ASCN
  47C6  21D119        	 LD HL,NMEMRY
  47C9  117648        	 LD DE,BYSLMS+6
  47CC  010500        	 LD BC,5
  47CF  EDB0          	 LDIR
  47D1  217048        	 LD HL,BYSLMS
  47D4  0E16          	 LD C,22
  47D6  CD2F19        	 CALL MSO
  47D9                	BYSLL6:
  47D9  FE07          	 CP 7H
  47DB  280A          	 JR Z,BYSLL5
  47DD  FE16          	 CP 16H
  47DF  CAA547        	 JP Z,BYSLRP
  47E2  CDFDBC        	 CALL 48381
  47E5  18F2          	 JR BYSLL6
  47E7                	BYSLL5:
  47E7  AF            	 XOR A
  47E8  21D02C        	 LD HL,FREE
  47EB  010B00        	 LD BC,11
  47EE  EDB1          	 CPIR
  47F0  2B            	 DEC HL
  47F1  D1            	 POP DE		;+1
  47F2  2019          	 JR NZ,BYSLOV
  47F4  E5            	 PUSH HL
  47F5  2A7662        	 LD HL,(G)
  47F8  B7            	 OR A
  47F9  ED52          	 SBC HL,DE
  47FB  381A          	 JR C,BYSLO2
  47FD  227662        	 LD (G),HL
  4800  E1            	 POP HL
  4801  D1            	 POP DE
  4802  1A            	 LD A,(DE)
  4803  77            	 LD (HL),A
  4804  218E47        	 LD HL,IV2MS+42
  4807  0E06          	 LD C,6
  4809  CD2F19        	 CALL MSO
  480C  C9            	 RET
  480D                	BYSLOV:
  480D  219248        	 LD HL,BYSLMS+34
  4810  0E0C          	 LD C,12
  4812  CD2F19        	 CALL MSO
  4815  E1            	 POP HL
  4816  C9            	 RET
  4817                	BYSLO2:
  4817  E1            	 POP HL
  4818  218648        	 LD HL,BYSLMS+22
  481B  18F3          	 JR BYSLOV+3
  481D                	BYSLAR:
  481D  21AA48        	 LD HL,BYSLP2
  4820  188C          	 JR BYSLL1
  4822                	BYSLSH:
  4822  21B448        	 LD HL,BYSLP3
  4825  1887          	 JR BYSLL1
  4827                	BYSLSW:
  4827  21BE48        	 LD HL,BYSLP4
  482A  1882          	 JR BYSLL1
  482C                	BYSLSL:
  482C  3E04          	 LD A,4
  482E  CD3921        	 CALL WSAN
  4831  E5            	 PUSH HL
  4832  D1            	 POP DE
  4833  3E02          	 LD A,2
  4835  CD3221        	 CALL XSAN
  4838  E5            	 PUSH HL
  4839  D1            	 POP DE
  483A  D5            	 PUSH DE
  483B  CDD619        	 CALL ASCN
  483E  CDCA48        	 CALL BYSLC1
  4841                	BYSLL2:
  4841  FE07          	 CP 7H	;Y
  4843  280A          	 JR Z,BYSLL3
  4845  FE16          	 CP 16H	;N
  4847  CAA547        	 JP Z,BYSLRP
  484A  CDFDBC        	 CALL 48381
  484D  18F2          	 JR BYSLL2
  484F                	BYSLL3:
  484F  D1            	 POP DE
  4850  E1            	 POP HL
  4851  AF            	 XOR A
  4852  77            	 LD (HL),A
  4853  2A7662        	 LD HL,(G)
  4856  19            	 ADD HL,DE
  4857  3003          	 JR NC,BYSLL4
  4859  21FFFF        	 LD HL,0FFFFH
  485C                	BYSLL4:
  485C  227662        	 LD (G),HL
  485F  2AF200        	 LD HL,(0F2H)
  4862  110008        	 LD DE,0800H
  4865  19            	 ADD HL,DE
  4866  EB            	 EX DE,HL
  4867  21C828        	 LD HL,GRD2
  486A  0608          	 LD B,8
  486C  CD3C1B        	 CALL GRPD
  486F  C9            	 RET
                      	
  4870                	BYSLMS:
  4870  BFDACA20202020	 DB "ｿﾚﾊ   ","     G","ﾆﾅﾙﾖ  ","Y/N?"
  4886  B5B6C8B6DE20C0	 DB "ｵｶﾈｶﾞ ","ﾀﾘﾅｲﾖ ","ﾓﾁﾓﾉｶﾞ","ｲｯﾊﾟｲ!"
  489E                	BYSLP1:
  489E  1400F401983AD0	 DW 20,500,15000,2000,300,12345
  48AA                	BYSLP2:
  48AA  0A002C01B80B10	 DW 10,300,3000,10000,0
  48B4                	BYSLP3:
  48B4  05006400B80B1C	 DW 5,100,3000,9500,0
  48BE                	BYSLP4:
  48BE  6400F401B80BE0	 DW 100,500,3000,12000,0,48
  48CA                	BYSLC1:
  48CA  21D119        	 LD HL,NMEMRY
  48CD  117648        	 LD DE,BYSLMS+6
  48D0  010500        	 LD BC,5
  48D3  EDB0          	 LDIR
  48D5  217048        	 LD HL,BYSLMS
  48D8  0E16          	 LD C,22
  48DA  CD2F19        	 CALL MSO
  48DD  C9            	 RET
  48DE                	IV3:;カンケイない→LD HL,ITLIST;ITEMAD=ITEM ADD
  48DE  F1            	 POP AF
  48DF  211B30        	 LD HL,KAIFUG
  48E2  CDDD25        	 CALL OPNG
  48E5  3A7562        	 LD A,(Y)
  48E8  3D            	 DEC A
  48E9  327562        	 LD (Y),A
  48EC  211049        	 LD HL,IV3MS
  48EF  0E16          	 LD C,22
  48F1  CD4F19        	 CALL MSO2P
  48F4                	IV3L1:
  48F4  FE07          	 CP 7;Y
  48F6  280A          	 JR Z,IV3L2
  48F8  FE16          	 CP 16H;N
  48FA  CAEA01        	 JP Z,START
  48FD  CDFDBC        	 CALL 48381
  4900  18F2          	 JR IV3L1
  4902                	IV3L2:
  4902  3E03          	 LD A,3
  4904  CD1E17        	 CALL FLASH
  4907  CD8808        	 CALL IT3
  490A  C3590F        	 JP MANSTS
  490D  C3EA01        	 JP START
  4910                	IV3MS:
  4910  CFCEB3BCDEDDB6	 DB "ﾏﾎｳｼﾞﾝ","ｶﾞｱﾙ  ","ﾉｯﾃﾐﾙ?","Y/N?"
  4926                	IV4:;WARP (1,0)
  4926  110001        	 LD DE,0100H
  4929  C32C5F        	 JP WARPSL
  492C                	IV5:
  492C  C34C5F        	 JP FLUP
  492F                	IV6:
  492F  C3775F        	 JP FLDN
  4932                	IV7:
  4932  21AE61        	 LD HL,IVENTM+54
  4935  0E0C          	 LD C,12
  4937  CD3319        	 CALL MSOP
  493A  CD3617        	 CALL TIMBTL
  493D  CDF923        	 CALL SHAKE
  4940  0606          	 LD B,6
  4942  CD1C1A        	 CALL GRD
  4945  CD6224        	 CALL BEPFDC
  4948  C3A25F        	 JP FLDNK
  494B                	IV8:;GOLD
  494B  AF            	 XOR A		;FLAG+0
  494C  CD7660        	 CALL FLAGC	; LD A,(FLAG); RLA; JP C,RETSAC
  494F  F1            	 POP AF
  4950  CD1161        	 CALL TAKARP
  4953  1E00          	 LD E,0		;FLAG+0
  4955  21C800        	 LD HL,200
  4958  C38460        	 JP TK1
  495B                	IVB:;WARP(4,0)
  495B  110004        	 LD DE,0400H
  495E  18C9          	 JR IV4+3
  4960                	IVC:;WARP(4,3)
  4960  110304        	 LD DE,0403H
  4963  18C4          	 JR IV4+3
  4965                	IVD:;WARP(5,4)
  4965  110405        	 LD DE,0504H
  4968  18BF          	 JR IV4+3
  496A                	IVE:;WARP(7,4)
  496A  110407        	 LD DE,0704H
  496D  18BA          	 JR IV4+3
  496F                	IVF:;WARP(6,1)
  496F  110106        	 LD DE,0601H
  4972  18B5          	 JR IV4+3
  4974                	IV9:;TO SEEING IS TO BELIEVING
  4974  218349        	 LD HL,IV9M
  4977  0E18          	 LD C,24
  4979  CD3319        	 CALL MSOP
  497C                	IV9L:
  497C  AF            	 XOR A
  497D  32F000        	 LD (0F0H),A								;
  4980  C31705        	 JP RETSAC
  4983                	IV9M:
  4983  3AD2C6D0B4D9D3	 DB ":ﾒﾆﾐｴﾙ","ﾓﾉﾀﾞｹｶ","ﾞｼﾝｼﾞﾂ","ﾃﾞﾊﾅｲ:"
  499B                	IVA:;ms ﾕｶ
  499B  21B049        	 LD HL,IVAM
  499E  0E12          	 LD C,18
  49A0  CD3319        	 CALL MSOP
  49A3  3A6363        	 LD A,(FLAG+0DH)
  49A6  17            	 RLA
  49A7  D21705        	 JP NC,RETSAC
  49AA                	IVATH:
                      	 ;
  49AA  21C249        	 LD HL,IVAM2
  49AD  C33549        	 JP IV7+3
  49B0                	IVAM:
  49B0  B5D3B2D3C9A6B5	 DB "ｵﾓｲﾓﾉｦ","ｵｲﾀﾗﾕｶ","ﾇｹｿｳﾀﾞ"
  49C2                	IVAM2:
  49C2  D5B6B6DE2020C7	 DB "ﾕｶｶﾞ  ","ﾇｹﾀｧ!!"
  49CE                	IV10:;MS "ｶﾝﾊﾞﾝ"
  49CE  21E461        	 LD HL,IVENTM+108
  49D1  0E18          	 LD C,24
  49D3  CD3319        	 CALL MSOP
  49D6  C31705        	 JP RETSAC
  49D9                	IV11:
  49D9  3E02          	 LD A,2		;FLAG+2
  49DB  CD7660        	 CALL FLAGC
  49DE                	KAGI:
  49DE  3AFC00        	 LD A,(0FCH)
  49E1  B7            	 OR A
  49E2  CA1705        	 JP Z,RETSAC
  49E5  F1            	 POP AF
  49E6                	IV11L:
  49E6  21FA49        	 LD HL,IV11M
  49E9  0E12          	 LD C,18
  49EB  CD2F19        	 CALL MSO
  49EE  F5            	 PUSH AF
  49EF  CD2A25        	 CALL GRPUT2
  49F2  F1            	 POP AF
  49F3  FE20          	 CP 20H
  49F5  28EF          	 JR Z,IV11L
  49F7  C33B06        	 JP MALP+3
  49FA                	IV11M:
  49FA  C4CBDED7CA20CC	 DB "ﾄﾋﾞﾗﾊ ","ﾌｳｲﾝ  ","ｻﾚﾃｲﾙ "
  4A0C                	IV12:;MS "ｶｷﾞのありか"
  4A0C  21CC61        	 LD HL,IVENTM+84
  4A0F  0E18          	 LD C,24
  4A11  CD3319        	 CALL MSOP
  4A14  C31705        	 JP RETSAC
  4A17                	IV13:
  4A17  3E01          	 LD A,1		;FLAG+1
  4A19  CD7660        	 CALL FLAGC
  4A1C  E1            	 POP HL
  4A1D  21474A        	 LD HL,IV13M
  4A20  CD1461        	 CALL TAKARP+3
  4A23  3E05          	 LD A,5
  4A25  CD1E17        	 CALL FLASH
  4A28  0602          	 LD B,2
  4A2A  214D4A        	 LD HL,IV13M+6
  4A2D  01FF04        	 LD BC,04FFH
  4A30  CDC719        	 CALL MSOBR
                      	;IV13L:
                      	; PUSH BC
                      	; CALL MSOB
                      	; POP BC
                      	; DJNZ IV13L
  4A33  3E05          	 LD A,5
  4A35  CD1E17        	 CALL FLASH
  4A38  3EC1          	 LD A,0C1H
  4A3A  21F02E        	 LD HL,IVITLS
  4A3D  115763        	 LD DE,FLAG+1
  4A40  C3E060        	 JP TK2
  4A43                	IV13ED:
  4A43  E1            	 POP HL
  4A44  C33B06        	 JP MALP+3
  4A47                	IV13M:
  4A47  CBB6D8202020  	 DB "ﾋｶﾘ   "
  4A4D  B1DABDCA2020BF	 DB "ｱﾚｽﾊ  ","ｿﾉﾋｶﾘﾆ","ﾌﾚﾀ   ",0F9H
  4A60  BDD9C4C5DDC4C0	 DB "ｽﾙﾄﾅﾝﾄ","ﾀｶﾗﾊﾞｺ","ｶﾞｱﾗﾜﾚ","ｶﾀﾘｶｹﾀ",0F9H
  4A79  3AB1DABDD6A4B1	 DB ":ｱﾚｽﾖ､","ｱﾉｵﾄｺﾊ","ﾊ､ｶﾐｦﾓ","ﾌｳｲﾝｼﾀ",0F9H
  4A92  B5B0CCDEA620C3	 DB "ｵｰﾌﾞｦ ","ﾃﾆｲﾚ､ ","ｶﾐﾀﾁｦ ","ﾄｷﾊﾅﾃ!",0F9H
  4AAB                	IV14:;ｲｱﾘｽ LV7 AP 52 DP 57 ﾉﾄｷ G 500 EX 480
  4AAB  3E04          	 LD A,4		;FLAG+4
  4AAD  CD7660        	 CALL FLAGC
  4AB0  E1            	 POP HL
  4AB1  3A5963        	 LD A,(FLAG+3)	;FLAG+3
  4AB4  17            	 RLA
  4AB5  3826          	 JR C,IV14TK
  4AB7  CD0919        	 CALL MCLEAR
  4ABA  21D53D        	 LD HL,TGRB
  4ABD  CDDD25        	 CALL OPNG
  4AC0  21E84A        	 LD HL,IV14M
  4AC3  0603          	 LD B,03
  4AC5  CDC719        	 CALL MSOBR
  4AC8  AF            	 XOR A
  4AC9  CDB25F        	 CALL BATTLB
  4ACC  AF            	 XOR A
  4ACD  32A463        	 LD (BF),A
  4AD0  3E80          	 LD A,80H
  4AD2  325963        	 LD (FLAG+3),A
  4AD5  21274B        	 LD HL,IV14M2
  4AD8  0605          	 LD B,05
  4ADA  CDC719        	 CALL MSOBR
  4ADD                	IV14TK:
  4ADD  3EC2          	 LD A,0C2H
  4ADF  21F82E        	 LD HL,IVITLS+8
  4AE2  115A63        	 LD DE,FLAG+4
  4AE5  C3C860        	 JP DOBU
  4AE8                	IV14M:
  4AE8  DCC0BCCA2020B3	 DB "ﾜﾀｼﾊ  ","ｳﾗﾐﾉ  ","ｼﾈﾝﾀｲ ",0F9H
  4AFB  DCC0BCC0C1CACC	 DB "ﾜﾀｼﾀﾁﾊ","ﾌｸｼｭｳｦ","ﾄｹﾞﾅｹﾚ","ﾊﾞﾅﾗﾅｲ",0F9H
  4B14  BABAB6D7BBB7C6	 DB "ｺｺｶﾗｻｷ","ﾆ ｽｽﾑﾉ","ﾅﾗｼﾈ!:",0F9H
  4B27                	IV14M2:
  4B27  D6B8BFDEBAC9DC	 DB "ﾖｸｿﾞｺﾉ","ﾜﾀｼｦﾀｵ","ｼﾀﾅ･･･",0F9H
  4B3A  DCC0BCC0C1CAB6	 DB "ﾜﾀｼﾀﾁﾊ","ｶﾚﾄﾄﾓﾆ",0F9H
  4B47  BAC9B8C6A620D6	 DB "ｺﾉｸﾆｦ ","ﾖｸｼﾖｳﾄ","ｼﾖｳﾄｼﾀ",0F9H
  4B5A  C3DED3B6DACADC	 DB "ﾃﾞﾓｶﾚﾊ","ﾜﾀｼﾀﾁﾉ","･･ﾀﾒﾆ･",0F9H
  4B6D  CCB8BCA5B3A6B6	 DB "ﾌｸｼ･ｳｦ","ｶﾅ･･ｽﾞ","･･ﾄｹﾞ･","ﾊｽﾞ･･･",0F9H
  4B86                	IV15:
  4B86  215260        	 LD HL,MISE2
  4B89  C3D346        	 JP MISEJ
  4B8C                	IV16:;TAKARA SANDER ARMOR
  4B8C  3E05          	 LD A,5		;FLAG+5
  4B8E  CD7660        	 CALL FLAGC	; LD A,(FLAG); RLA; JP C,RETSAC
  4B91  F1            	 POP AF
  4B92  CD1161        	 CALL TAKARP
  4B95  3E43          	 LD A,43H
  4B97  115B63        	 LD DE,FLAG+5
  4B9A  21A02E        	 LD HL,ARMOR+16
  4B9D  C3E060        	 JP TK2
  4BA0                	IV17:;FLAG+6 720G
  4BA0  3E06          	 LD A,6		;FLAG+6
  4BA2  CD7660        	 CALL FLAGC	; LD A,(FLAG); RLA; JP C,RETSAC
  4BA5  F1            	 POP AF
  4BA6  CD1161        	 CALL TAKARP
  4BA9  21D002        	 LD HL,720
  4BAC  1E06          	 LD E,6		;FLAG+6
  4BAE  C38460        	 JP TK1
  4BB1                	IV18:;ｼﾛｷｼ
  4BB1  E1            	 POP HL
  4BB2  0E01          	 LD C,1
                      	;JP KOTEIB
  4BB4                	KOTEIB:
  4BB4  216463        	 LD HL,FLAG+14
  4BB7  7E            	 LD A,(HL)
  4BB8  B7            	 OR A
  4BB9  C2CA4B        	 JP NZ,KOTEIL
  4BBC                	KOTEIT:	;C=TEKI NO.
  4BBC  3E80          	 LD A,80H
  4BBE  77            	 LD (HL),A
  4BBF  79            	 LD A,C
  4BC0  CDB25F        	 CALL BATTLB
  4BC3  AF            	 XOR A
  4BC4  32A463        	 LD (BF),A
  4BC7  C3EA01        	 JP START
  4BCA                	KOTEIL:
  4BCA  B7            	 OR A
  4BCB  CB16          	 RL (HL)
  4BCD  CDFDBC        	 CALL 48381
  4BD0  FE20          	 CP 20H
  4BD2  CA3B06        	 JP Z,MALP+3
  4BD5  37            	 SCF
  4BD6  CB1E          	 RR (HL)
  4BD8  C33B06        	 JP MALP+3
  4BDB                	IV19:		;剣の玉を掲げよ
  4BDB  3E0B          	 LD A,0BH	;FLAG+0BH
  4BDD  CD7660        	 CALL FLAGC	; LD A,(FLAG); RLA; JP C,RETSAC
  4BE0  21FC61        	 LD HL,IVENTM+132
  4BE3                	IV19L:
  4BE3  0E18          	 LD C,24
  4BE5  CD2F19        	 CALL MSO
  4BE8  E1            	 POP HL
  4BE9  C33B06        	 JP MALP+3
  4BEC                	IV1A:;動く床
  4BEC  3AF000        	 LD A,(0F0H)
  4BEF  B7            	 OR A
  4BF0  200F          	 JR NZ,IV1AL
  4BF2  211462        	 LD HL,IVENTM+156
  4BF5  0E12          	 LD C,18
  4BF7  CD3319        	 CALL MSOP
  4BFA  CD3E17        	 CALL TIM255
  4BFD  F1            	 POP AF
  4BFE  C33B16        	 JP MUP
  4C01                	IV1AL:
  4C01  3E0A          	 LD A,0AH
  4C03  CD7660        	 CALL FLAGC
  4C06  3A7462        	 LD A,(X)
  4C09  2A7562        	 LD HL,(Y)
  4C0C  FE02          	 CP 2
  4C0E  200C          	 JR NZ,IV1AED
  4C10  7D            	 LD A,L
  4C11  FE05          	 CP 5
  4C13  2007          	 JR NZ,IV1AED
  4C15  3A7B62        	 LD A,(URDL)
  4C18  FE03          	 CP 3
  4C1A  2804          	 JR Z,IV1AED+4
  4C1C                	IV1AED:
  4C1C  00            	 NOP
  4C1D  C31705        	 JP RETSAC
                      	;
  4C20  3E0A          	 LD A,0AH
  4C22  C35F4C        	 JP IV1F+2
  4C25                	IV1B:;WARP 0,6
  4C25  110600        	 LD DE,0006H
  4C28  C32C5F        	 JP WARPSL
  4C2B                	IV1C:;WARP 7,7
  4C2B  3E0A          	 LD A,0AH
  4C2D  CD7660        	 CALL FLAGC
  4C30  110707        	 LD DE,0707H
  4C33  18F3          	 JR IV1B+3
  4C35                	IV1D:; DB "ﾘﾀﾝｽﾄｰﾝ ";	NO.C6H
  4C35  3E07          	 LD A,7		;FLAG+7
  4C37  CD7660        	 CALL FLAGC	; LD A,(FLAG); RLA; JP C,RETSAC
  4C3A  F1            	 POP AF
  4C3B  CD1161        	 CALL TAKARP
  4C3E  3EC6          	 LD A,0C6H
  4C40  115D63        	 LD DE,FLAG+7
  4C43  21182F        	 LD HL,IVITLS+40
  4C46  C3E060        	 JP TK2
  4C49                	IV1E:;ICE SHIELD
  4C49  3E08          	 LD A,8		;FLAG+8
  4C4B  CD7660        	 CALL FLAGC	; LD A,(FLAG); RLA; JP C,RETSAC
  4C4E  F1            	 POP AF
  4C4F  CD1161        	 CALL TAKARP
  4C52  3E23          	 LD A,23H
  4C54  115E63        	 LD DE,FLAG+8
  4C57  21702E        	 LD HL,SHIELD+16
  4C5A  C3E060        	 JP TK2
  4C5D                	IV1F:
  4C5D  3E09          	 LD A,9
  4C5F  215663        	 LD HL,FLAG
  4C62  5F            	 LD E,A
  4C63  1600          	 LD D,0
  4C65  19            	 ADD HL,DE
  4C66  22794C        	 LD (BOTANL+1),HL
  4C69  CD7660        	 CALL FLAGC
  4C6C  F1            	 POP AF
  4C6D  212662        	 LD HL,IVENTM+174
  4C70  CD1461        	 CALL TAKARP+3
  4C73  CD7E4C        	 CALL TAKARS
  4C76  3E80          	 LD A,80H
  4C78                	BOTANL:
  4C78  325F63        	 LD (FLAG+9),A
  4C7B  C3EA01        	 JP START
  4C7E                	TAKARS:
  4C7E  210B34        	 LD HL,MESSEG	;12/2
  4C81  CDDD25        	 CALL OPNG	;12/2
  4C84  21AB4C        	 LD HL,IV18M
  4C87  0E18          	 LD C,24
  4C89  CD4B19        	 CALL MSO2
  4C8C                	IV18L:
  4C8C  FE07          	 CP 7;Y
  4C8E  280C          	 JR Z,IV18L2
  4C90  FE16          	 CP 16H;N
  4C92  E1            	 POP HL
  4C93  CAEA01        	 JP Z,START
  4C96  E5            	 PUSH HL
  4C97  CDFDBC        	 CALL 48381
  4C9A  18F0          	 JR IV18L
  4C9C                	IV18L2:
  4C9C  CDF923        	 CALL SHAKE
  4C9F  CD5D24        	 CALL BEPBKC
  4CA2  21C34C        	 LD HL,IV18M+24
  4CA5  0E12          	 LD C,18
  4CA7  CD8919        	 CALL MSOB
  4CAA  C9            	 RET
  4CAB                	IV18M:
  4CAB  CEDEC0DD2020B6	 DB "ﾎﾞﾀﾝ  ","ｶﾞｱﾙ  ","ｵｼﾃﾐﾙｶ","Y/N?  "
  4CC3  C5C6B6B6DE20B7	 DB "ﾅﾆｶｶﾞ ","ｷｴｻｯﾀ ","ｵﾄｶﾞｼﾀ"
  4CD5                	IV20:
  4CD5  3E09          	 LD A,9
  4CD7  CD7660        	 CALL FLAGC
  4CDA  C3DE49        	 JP KAGI
  4CDD                	IV21:;3F KAGI
  4CDD  21E84C        	 LD HL,IV21M
  4CE0  0E06          	 LD C,6
  4CE2  CD3319        	 CALL MSOP
  4CE5  C31705        	 JP RETSAC
  4CE8                	IV21M:
  4CE8  C1B2BBC5B1C5  	 DB "ﾁｲｻﾅｱﾅ"
  4CEE                	IV22:;ﾀﾞﾒｰｼﾞ床
  4CEE  212C62        	 LD HL,IVENTM+180
  4CF1  0E0C          	 LD C,12
  4CF3  CD3319        	 CALL MSOP
  4CF6  FDE1          	 POP IY
  4CF8  CDC404        	 CALL DOKD
  4CFB  FDE5          	 PUSH IY
  4CFD  C31705        	 JP RETSAC
  4D00                	IV23:;2F BOTAN
  4D00  3E0C          	 LD A,0CH
  4D02  C35F4C        	 JP IV1F+2
  4D05                	IV24:
  4D05  3E0C          	 LD A,0CH
  4D07  CD7660        	 CALL FLAGC
  4D0A  C3DE49        	 JP KAGI
  4D0D                	IV25:;宝:ｷﾞﾝﾉｶﾀﾏﾘ
  4D0D  3E0D          	 LD A,0DH
  4D0F  CD7660        	 CALL FLAGC
  4D12  F1            	 POP AF
  4D13  CD1161        	 CALL TAKARP
  4D16  21294D        	 LD HL,IV25M
  4D19  0E0C          	 LD C,12
  4D1B  CD4B19        	 CALL MSO2
  4D1E  3EC7          	 LD A,0C7H
  4D20  21202F        	 LD HL,IVITLS+48
  4D23  116363        	 LD DE,FLAG+0DH
  4D26  C3E060        	 JP TK2
  4D29                	IV25M:
  4D29  BADACAA5A5A5B5	 DB "ｺﾚﾊ･･･","ｵﾓﾀｲ･･"
  4D35                	IV26:;ｲﾉﾁﾉｵｰﾌﾞ
  4D35  3E10          	 LD A,10H
  4D37  CD7660        	 CALL FLAGC
  4D3A  E1            	 POP HL
  4D3B  214C4D        	 LD HL,IV26M
  4D3E  CD1461        	 CALL TAKARP+3
  4D41  3EC5          	 LD A,0C5H
  4D43  21102F        	 LD HL,IVITLS+32
  4D46  116663        	 LD DE,FLAG+10H
  4D49  C3C860        	 JP DOBU
  4D4C                	IV26M:
  4D4C  B1B6B2C0CF20  	 DB "ｱｶｲﾀﾏ "
  4D52                	IV27:;伝説の武具
  4D52  E1            	 POP HL
  4D53  216A4D        	 LD HL,IV27M
  4D56  CD1461        	 CALL TAKARP+3
  4D59  210B34        	 LD HL,MESSEG	;12/2
  4D5C  CDDD25        	 CALL OPNG	;12/2
  4D5F  21704D        	 LD HL,IV27M+6
  4D62  0605          	 LD B,5
  4D64  CDC719        	 CALL MSOBR
  4D67  C3EA01        	 JP START
  4D6A                	IV27M:
  4D6A  B6CDDE202020  	 DB "ｶﾍﾞ   "
  4D70  CCC0A5CBDE20BC	 DB "ﾌﾀ･ﾋﾞ ","ｼﾞ･ｱｸﾆ","･ｶ･ﾚﾀ ","ﾄｷ･ﾀﾒ･",0F9H
  4D89  B7ADA5B7A5B8C9	 DB "ｷｭ･ｷ･ｸ","ﾉ･ｳﾋﾞｦ","ﾌｳ･ﾝ･ﾃ","ｵｸ････",0F9H
  4DA2  BADAA5A5CA20B6	 DB "ｺﾚ･･ﾊ ","ｶﾐｶﾞ･ﾉ","ﾁｶ･ｶﾞ･","･ﾂﾖ･ﾀﾞ",0F9H
  4DBB  BFDAA5DEDA2037	 DB "ｿﾚ･ﾞﾚ ","7･･ｲ  ","･･ｶ･  ","･0･･ﾆ ","･ﾙ･ﾞﾛｳ",0F9H
  4DDA  CCA5B2DDA520C4	 DB "ﾌ･ｲﾝ･ ","ﾄｸ･ｷ･ﾊ","1ｶ･ﾉﾕ･","ﾉｼﾀ･･ﾘ",0F9H
  4DF3                	IV28:;ﾌｳｲﾝﾉｶｷﾞ
  4DF3  3E11          	 LD A,11H
  4DF5  CD7660        	 CALL FLAGC
  4DF8  E1            	 POP HL
  4DF9  21C828        	 LD HL,GRD2
  4DFC  CD1461        	 CALL TAKARP+3
  4DFF  3E05          	 LD A,5
  4E01  CD2117        	 CALL FLASHN
  4E04  3EC8          	 LD A,0C8H
  4E06  21282F        	 LD HL,IVITLS+56
  4E09  116763        	 LD DE,FLAG+11H
  4E0C  C3E060        	 JP TK2
  4E0F                	IV29:;すりぬけ
  4E0F  3A7B62        	 LD A,(URDL)
  4E12  3D            	 DEC A
  4E13  C21705        	 JP NZ,RETSAC
  4E16  C37C49        	 JP IV9L
  4E19                	IV2A:
  4E19  3E12          	 LD A,12H
  4E1B  CD7660        	 CALL FLAGC
  4E1E  21244E        	 LD HL,IV2AM
  4E21  C3E34B        	 JP IV19L
  4E24                	IV2AM:
  4E24  B1DABDA42020BE	 DB "ｱﾚｽ､  ","ｾｲﾒｲﾉ ","ｶｶﾞﾔｷｦ","ｶｶｹﾅｻｲ"
  4E3C                	IV2B:;月夜の薬
  4E3C  3E13          	 LD A,13H
  4E3E  CD7660        	 CALL FLAGC
  4E41  E1            	 POP HL
  4E42  CD1161        	 CALL TAKARP
  4E45  3E84          	 LD A,84H
  4E47  21D82E        	 LD HL,ITLIST+24
  4E4A  116963        	 LD DE,FLAG+13H
  4E4D  C3E060        	 JP TK2
  4E50                	IV2C:;鍛冶屋のｷﾞﾙ
  4E50  3A6863        	 LD A,(FLAG+12H)
  4E53  17            	 RLA
  4E54  3017          	 JR NC,IV2CL
  4E56  210B31        	 LD HL,KAZIG
  4E59  CDDD25        	 CALL OPNG
  4E5C  21784E        	 LD HL,IV2CM
  4E5F  0603          	 LD B,3
  4E61  CDC719        	 CALL MSOBR
  4E64  CDED4E        	 CALL C7C
  4E67  215E60        	 LD HL,MISE3
  4E6A  C3E346        	 JP MISEJ2
  4E6D                	IV2CL:
  4E6D  21D74E        	 LD HL,IV2CM3
  4E70  0E16          	 LD C,22
  4E72  CD3319        	 CALL MSOP
  4E75  C31705        	 JP RETSAC
  4E78                	IV2CM:
  4E78  DCC0BCCA2020B6	 DB "ﾜﾀｼﾊ  ","ｶｼﾞﾔﾉ ","ｷﾞﾙ   ",0F9H
  4E8B  C3DEDDBEC2C9BF	 DB "ﾃﾞﾝｾﾂﾉ","ｿｳﾋﾞﾄﾊ","ｲｶﾅｲｶﾞ",0F9H
  4E9E  D6B2BFB3CBDEB6	 DB "ﾖｲｿｳﾋﾞ","ｶﾞｱﾙﾖ ",0F9H
  4EAB                	IV2CM2:
  4EAB  B5B5BFDACA20B7	 DB "ｵｵｿﾚﾊ ","ｷﾞﾝﾉ  ","ｶﾀﾏﾘ! ",0F9H
  4EBE  313030303047C4	 DB "10000G","ﾄｺｳｶﾝ ","ｼﾃｱｹﾞ ","ﾖｳ    ",0F9H
  4ED7                	IV2CM3:
  4ED7  3AB2C9C1C920CC	 DB ":ｲﾉﾁﾉ ","ﾌｳｲﾝｶﾞ","ﾄｹﾙﾏﾃﾞ","ﾔｽﾐ:"
  4EED                	C7C:
  4EED  216762        	 LD HL,ITEM
  4EF0  010C00        	 LD BC,12
  4EF3  3EC7          	 LD A,0C7H
  4EF5  EDB1          	 CPIR
  4EF7  C0            	 RET NZ
  4EF8  2B            	 DEC HL
  4EF9  3600          	 LD (HL),0
  4EFB  21AB4E        	 LD HL,IV2CM2
  4EFE  0602          	 LD B,2
  4F00  CDC719        	 CALL MSOBR
  4F03  2A7662        	 LD HL,(G)
  4F06  111027        	 LD DE,10000
  4F09  19            	 ADD HL,DE
  4F0A  3003          	 JR NC,C7CL
  4F0C  21FFFF        	 LD HL,0FFFFH
  4F0F                	C7CL:
  4F0F  227662        	 LD (G),HL
  4F12  C9            	 RET
  4F13                	IV2D:;伝説の盾
  4F13  3E14          	 LD A,14H
  4F15  CD7660        	 CALL FLAGC
  4F18  E1            	 POP HL
  4F19  CD1161        	 CALL TAKARP
  4F1C  216863        	 LD HL,FLAG+12H		;神のフラグ
  4F1F  116E4F        	 LD DE,IV2DRP		;各自宝
  4F22                	KYUEQJ:					;ここへジャンプ
  4F22  E5            	 PUSH HL	;12/2
  4F23  D5            	 PUSH DE	;12/2
  4F24  21EB35        	 LD HL,TAKRFG	;12/2
  4F27  CDC823        	 CALL OPNG2	;12/2
  4F2A  D1            	 POP DE		;12/2
  4F2B  E1            	 POP HL		;12/2
  4F2C  224F4F        	 LD (I2DEX1+1),HL	;神のフラグ
  4F2F  3A6763        	 LD A,(FLAG+11H)	;封印の鍵
  4F32  17            	 RLA
  4F33  380B          	 JR C,IV2DL1	;A
  4F35  219E4F        	 LD HL,IV2DM2	;ﾀｶﾗﾊﾞｺﾊﾋﾗｶﾅｲ	脱落
  4F38  0E0C          	 LD C,12
  4F3A  CD4B19        	 CALL MSO2
  4F3D  C3EA01        	 jp start
  4F40                	IV2DL1:		;		成功
  4F40  D5            	 PUSH DE	;A
  4F41  21864F        	 LD HL,IV2DM1	;ﾌｳｲﾝﾉｶｷﾞｦﾂｶｯﾀ
  4F44  0E18          	 LD C,24
  4F46  CD4B19        	 CALL MSO2
  4F49  3E05          	 LD A,5
  4F4B  CD1E17        	 CALL FLASH
  4F4E                	I2DEX1:
  4F4E  3A0000        	 LD A,(0000)
  4F51  E1            	 POP HL
  4F52  E5            	 PUSH HL
  4F53  2B            	 DEC HL		;IV2DRP-1
  4F54  17            	 RLA
  4F55  380B          	 JR C,IV2DL	
  4F57  3600          	 LD (HL),0	;邪の道	;IV2DRP-1
  4F59  21AA4F        	 LD HL,IV2DM3
  4F5C  0E12          	 LD C,18
  4F5E  CD8919        	 CALL MSOB
  4F61  C9            	 RET		;各自の宝へ
  4F62                	IV2DL:	
  4F62  3601          	 LD (HL),1	;聖の道	;IV2DRP-1
  4F64  21BC4F        	 LD HL,IV2DM3+18
  4F67  0E12          	 LD C,18
  4F69  CD8919        	 CALL MSOB
  4F6C  C9            	 RET		;各自の宝へ
  4F6D  00            	 DB 0		;IV2DRP-1
  4F6E                	IV2DRP:
  4F6E  3A6D4F        	 LD A,(IV2DRP-1)
  4F71  B7            	 OR A
  4F72  2007          	 JR NZ,IV2DSI
  4F74                	IV2DJA:
  4F74  3E26          	 LD A,26H
  4F76  21882E        	 LD HL,SHIELD+40
  4F79  1805          	 JR IV2DL2
  4F7B                	IV2DSI:
  4F7B  3E25          	 LD A,25H
  4F7D  21802E        	 LD HL,SHIELD+32
  4F80                	IV2DL2:
  4F80  116A63        	 LD DE,FLAG+14H	
  4F83  C3CE60        	 JP DTATE	;TK2
  4F86                	IV2DM1:
  4F86  B1DABDCA2020CC	 DB "ｱﾚｽﾊ  ","ﾌｳｲﾝﾉ ","ｶｷﾞｦ  ","ﾂｶｯﾀ  "
  4F9E                	IV2DM2:
  4F9E  C0B6D7CADEBACA	 DB "ﾀｶﾗﾊﾞｺ","ﾊﾋﾗｶﾅｲ"
  4FAA                	IV2DM3:
  4FAA  BCDEACB1B8C5CB	 DB "ｼﾞｬｱｸﾅ","ﾋｶﾘｶﾞ ","ｱﾌﾚﾀﾞｽ"
  4FBC  B6D0C9C1B6D7C3	 DB "ｶﾐﾉﾁｶﾗ","ﾃﾞﾉﾛｲ ","ｶﾞﾄｹﾀ "
  4FCE                	IV2E:;ｾｯｺｳﾏﾙ
  4FCE  3E15          	 LD A,15H	;FLAG+15H
  4FD0  CD7660        	 CALL FLAGC
  4FD3  E1            	 POP HL
  4FD4  21F54F        	 LD HL,IV2EM
  4FD7  0E18          	 LD C,24
  4FD9  CD4B19        	 CALL MSO2
  4FDC  3E02          	 LD A,2
  4FDE  CDB25F        	 CALL BATTLB
  4FE1  210D50        	 LD HL,IV2EM2
  4FE4  0604          	 LD B,4
  4FE6  CDC719        	 CALL MSOBR
  4FE9  AF            	 XOR A
  4FEA  32A463        	 LD (BF),A
  4FED  3E80          	 LD A,80H
  4FEF  326B63        	 LD (FLAG+15H),A
  4FF2  C3EA01        	 JP START
  4FF5                	IV2EM:
  4FF5  BEAFBAB3CFD9C9	 DB "ｾｯｺｳﾏﾙ","ﾉﾅﾆｶｹﾃ","ｵﾏｴｦ  ","ﾀｵｽ!  "
  500D                	IV2EM2:
  500D  C5B6C5B6D4D9C3	 DB "ﾅｶﾅｶﾔﾙ","ﾃﾞﾊﾅｲｶ",0F9H
  501A  BCB6BCCCB8BCAD	 DB "ｼｶｼﾌｸｼ","ｭｳﾊ､ﾓｳ","ﾄﾏﾗﾅｲ ",0F9H
  502D  B7BBCFC5D7A4B1	 DB "ｷｻﾏﾅﾗ､","ｱﾉｵｶﾀﾆ","ｱｴﾙｶﾓ ","ｼﾚﾅｲｶﾞ",0F9H
  5046  BFBAC3DEBEDEC2	 DB "ｿｺﾃﾞｾﾞ","ﾂﾎﾞｳｦ･","ｼﾙ･･ｺﾄ","ﾆ･･ﾅﾙ･",0F9H
  505F                	IV2F:;6F TO 8F
  505F  210001        	 LD HL,0100H
  5062  3E08          	 LD A,8
  5064                	IV2FL:
  5064  327362        	 LD (FL),A
  5067  227462        	 LD (X),HL
  506A  F1            	 POP AF
  506B  211B30        	 LD HL,KAIFUG
  506E  CDDD25        	 CALL OPNG
  5071  218C50        	 LD HL,IV2FM
  5074  0E18          	 LD C,24
  5076  CD4B19        	 CALL MSO2
  5079  3E03          	 LD A,3
  507B  CD2117        	 CALL FLASHN
  507E  CD631B        	 CALL GROR
  5081  CD511A        	 CALL GRO
  5084  3E03          	 LD A,3
  5086  CD2117        	 CALL FLASHN
  5089  C3EA01        	 JP START
  508C                	IV2FM:
  508C  CAB9DEBCB220CB	 DB "ﾊｹﾞｼｲ ","ﾋｶﾘｶﾞ ","ｱﾚｽｦ  ","ﾂﾂﾑ!  "
  50A4                	IV30:;8F TO 6F
  50A4  3E06          	 LD A,6
  50A6  210304        	 LD HL,0403H
  50A9  18B9          	 JR IV2FL
  50AB                	IV31:;回転の間に宝あり
  50AB  21B650        	 LD HL,IV31M
  50AE  0E0C          	 LD C,12
  50B0  CD3319        	 CALL MSOP
  50B3  C31705        	 JP RETSAC
  50B6                	IV31M:
  50B6  B6B2C3DDC9CFA6	 DB "ｶｲﾃﾝﾉﾏ","ｦｼﾗﾍﾞﾖ"
  50C2                	IV32:;回転床
  50C2  3E2D          	 ld A,2dh
  50C4  CD7660        	 call flagc
  50C7  CD8C1B        	 CALL RAND4
  50CA  3C            	 INC A
  50CB  327B62        	 LD (URDL),A
  50CE  C31705        	 JP RETSAC
  50D1                	IV33:;ｱﾉﾖﾉｸｽﾘ
  50D1  3E16          	 LD A,16H
  50D3  CD7660        	 CALL FLAGC
  50D6  F1            	 POP AF
  50D7  CD1161        	 CALL TAKARP
  50DA  3E83          	 LD A,83H
  50DC  21D02E        	 LD HL,ITLIST+16
  50DF  116C63        	 LD DE,FLAG+16H
  50E2  C3E060        	 JP TK2
  50E5                	IV34:;スルー習得
                      	;JP RETSAC		;
  50E5  3E17          	 LD A,17H
  50E7  CD7660        	 CALL FLAGC
  50EA  F1            	 POP AF
  50EB  211351        	 LD HL,IV34M
  50EE  CD1461        	 CALL TAKARP+3
  50F1  211951        	 LD HL,IV34M+6
  50F4  0E18          	 LD C,24
  50F6  CD4B19        	 CALL MSO2
  50F9  3E0A          	 LD A,10
  50FB  CD1E17        	 CALL FLASH
  50FE  213151        	 LD HL,IV34M+30
  5101  0E0C          	 LD C,12
  5103  CD8919        	 CALL MSOB
  5106  3E80          	 LD A,80H
  5108  326D63        	 LD (FLAG+17H),A
  510B  217A62        	 LD HL,MG
  510E  CBF6          	 SET 6,(HL)
  5110  C3EA01        	 JP START
  5113                	IV34M:
  5113  CEB3B7DEAEB8  	 DB "ﾎｳｷﾞｮｸ"
  5119  CCBCB7DEC520CB	 DB "ﾌｼｷﾞﾅ ","ﾋｶﾘｶﾞ ","ｱﾚｽﾆ  ","ﾊｲｯﾃｸﾙ"
  5131  CFCEB3BDD9B0A6	 DB "ﾏﾎｳｽﾙｰ","ｦｵﾎﾞｴﾀ",0F9H
  513E                	IV35:;すり抜け下
  513E  00            	 NOP
  513F  3A7B62        	 LD A,(URDL)
  5142  FE03          	 CP 3
  5144  CA7C49        	 JP Z,IV9L
  5147  C31705        	 JP RETSAC
  514A                	IV36:;封印扉
  514A  3E18          	 LD A,18H
  514C  C3DB49        	 JP IV11+2
  514F                	IV37:;ﾌｳｲﾝｽｲｯﾁ
  514F  3E18          	 LD A,18H
  5151  C35F4C        	 JP IV1F+2
  5154                	IV38:;ﾀﾞｲﾀﾛｽﾒｯｾｰｼﾞ
  5154  00            	 NOP
  5155  3A7463        	 LD A,(FLAG+1EH)
  5158  17            	 RLA
  5159  00            	 NOP
  515A  DA3E51        	 JP C,IV35
  515D  216E51        	 LD HL,IV38M
  5160  0604          	 LD B,4
  5162  CDC719        	 CALL MSOBR
  5165  3E80          	 LD A,80H
  5167  327463        	 LD (FLAG+1EH),A
  516A  F1            	 POP AF
  516B  C3EA01        	 JP START
  516E                	IV38M:
  516E  3ABABACFC3DEB7	 DB ":ｺｺﾏﾃﾞ","ｷﾀｶｱﾚｽ",0F9H
  517B  DCC0BCCA2020CF	 DB "ﾜﾀｼﾊ  ","ﾏﾀﾞﾏﾀﾞ","ｻｷﾆｲﾙ ",0F9H
  518E  B5BCDEB9BDDEB8	 DB "ｵｼﾞｹｽﾞ","ｸﾅﾖ:  ",0F9H
  519B  CFD8AEB8B6DEB6	 DB "ﾏﾘｮｸｶﾞ","ｶｲﾎｳ  ","ｻﾚﾀ   ",0F9H
  51AE                	IV39:;回転の間左上
  51AE  1E00          	 LD E,0
  51B0  180A          	 JR IV3CL
  51B2                	IV3A:;回転の間左下
  51B2  1E01          	 LD E,1
  51B4  1806          	 JR IV3CL
  51B6                	IV3B:;回転の間右上
  51B6  1E02          	 LD E,2
  51B8  1802          	 JR IV3CL
  51BA                	IV3C:;回転の間右下
  51BA  1E03          	 LD E,3
  51BC                	IV3CL:
  51BC  1600          	 LD D,0
  51BE  216F63        	 LD HL,FLAG+19H
  51C1  19            	 ADD HL,DE
  51C2  3680          	 LD (HL),80H
  51C4                	IV3D:;回転の間の幸
  51C4  3E1D          	 LD A,1DH
  51C6  CD7660        	 CALL FLAGC
  51C9  216F63        	 LD HL,FLAG+19H
  51CC  AF            	 XOR A
  51CD  010400        	 LD BC,4
  51D0  EDB1          	 CPIR
  51D2  CA1705        	 JP Z,RETSAC
  51D5  F1            	 POP AF
  51D6  21E951        	 LD HL,IV3DM
  51D9  0E18          	 LD C,24
  51DB  CD4B19        	 CALL MSO2
  51DE  117363        	 LD DE,FLAG+1DH
  51E1  21002F        	 LD HL,IVITLS+16
  51E4  3EC3          	 LD A,0C3H
  51E6  C3C860        	 JP DOBU
  51E9                	IV3DM:
  51E9  C3DDBCDEAEB3B6	 DB "ﾃﾝｼﾞｮｳ","ｶﾗﾀﾏｶﾞ","ｺﾛｶﾞｯﾃ","ｷﾀ    "
  5201                	IV3E:;8F TO 10F
  5201  3A7463        	 LD A,(FLAG+1EH)
  5204  17            	 RLA
  5205  D21705        	 JP NC,RETSAC
  5208  3E0A          	 LD A,10
  520A  210304        	 LD HL,0403H
  520D  C36450        	 JP IV2FL
  5210                	IV3F:;ｱﾐｭﾚｯﾄ
  5210  3E1F          	 LD A,1FH
  5212  CD7660        	 CALL FLAGC
  5215  E1            	 POP HL
  5216  21C828        	 LD HL,GRD2
  5219  CD1461        	 CALL TAKARP+3
  521C  3E05          	 LD A,5
  521E  CD2117        	 CALL FLASHN
  5221  21302F        	 LD HL,IVITLS+64
  5224  3EC9          	 LD A,0C9H
  5226  117563        	 LD DE,FLAG+1FH
  5229  C3E060        	 JP TK2
  522C                	IV40:;FL9 MS1
  522C  213752        	 LD HL,IV40M
  522F  0E0B          	 LD C,11
  5231  CD3319        	 CALL MSOP
  5234  C31705        	 JP RETSAC
  5237                	IV40M:
  5237  CAC5C9C5B6C6C0	 DB "ﾊﾅﾉﾅｶﾆ","ﾀｶﾗｱﾘ"
  5242                	IV41:;ｾﾞｳｽﾉﾖﾛｲ 10F
  5242  3E20          	 LD A,20H
  5244  CD7660        	 CALL FLAGC
  5247  E1            	 POP HL
  5248  CD1161        	 CALL TAKARP
  524B  217763        	 LD HL,FLAG+21H		;神のフラグ
  524E  115552        	 LD DE,IV41RP		;各自宝
  5251  C3224F        	 JP KYUEQJ
  5254  00            	 DB 0
  5255                	IV41RP:
  5255  3A5452        	 LD A,(IV41RP-1)
  5258  B7            	 OR A
  5259  2007          	 JR NZ,IV41SI
  525B                	IV41JA:
  525B  3E46          	 LD A,46H
  525D  21B82E        	 LD HL,ARMOR+40
  5260  1805          	 JR IV41L2
  5262                	IV41SI:
  5262  3E45          	 LD A,45H
  5264  21B02E        	 LD HL,ARMOR+32
  5267                	IV41L2:
  5267  117663        	 LD DE,FLAG+20H	
  526A  C3D460        	 JP DYORO	;TK2
  526D                	IV42:;10F TO 8F
  526D  3E08          	 LD A,8
  526F  210607        	 LD HL,0706H
  5272  C36450        	 JP IV2FL
  5275                	IV43:;心の神
  5275  3E21          	 LD A,21H
  5277  CD7660        	 CALL FLAGC
  527A  218052        	 LD HL,IV43M
  527D  C3E34B        	 JP IV19L
  5280                	IV43M:
  5280  B1DABDD6A420BA	 DB "ｱﾚｽﾖ､ ","ｺｺﾛﾉ  ","ｶｶﾞﾔｷｦ","ﾃﾗｽﾉﾀﾞ"
  5298                	IV44:;ｴｸｽｶﾘﾊﾞｰ	14F
  5298  3E22          	 LD A,22H
  529A  CD7660        	 CALL FLAGC
  529D  E1            	 POP HL
  529E  CD1161        	 CALL TAKARP
  52A1  216163        	 LD HL,FLAG+0BH		;神のフラグ
  52A4  11AB52        	 LD DE,IV44RP		;各自宝
  52A7  C3224F        	 JP KYUEQJ
  52AA  00            	 DB 0
  52AB                	IV44RP:
  52AB  3AAA52        	 LD A,(IV44RP-1)
  52AE  B7            	 OR A
  52AF  2007          	 JR NZ,IV44SI
  52B1                	IV44JA:
  52B1  3E16          	 LD A,16H
  52B3  21582E        	 LD HL,SWORD+40
  52B6  1805          	 JR IV44L2
  52B8                	IV44SI:
  52B8  3E15          	 LD A,15H
  52BA  21502E        	 LD HL,SWORD+32
  52BD                	IV44L2:
  52BD  117863        	 LD DE,FLAG+22H	
  52C0  C3DA60        	 JP DTURU	;TK2
  52C3                	IV45:;ｸﾛｷｼ
  52C3  E1            	 POP HL
  52C4  0E03          	 LD C,3
  52C6  C3B44B        	 JP KOTEIB
  52C9                	IV46:;10000G
  52C9  3E23          	 LD A,23H
  52CB  CD7660        	 CALL FLAGC
  52CE  F1            	 POP AF
  52CF  CD1161        	 CALL TAKARP
  52D2  1E23          	 LD E,23H		;FLAG+23H
  52D4  211027        	 LD HL,10000
  52D7  C38460        	 JP TK1
  52DA                	IV47:;歩いたところに戻す封印	;flag+43
  52DA  3E2B          	 ld A,2bh
  52DC  CD7660        	 call flagc
  52DF  21F552        	 LD HL,iv47m
  52E2  0E12          	 LD C,18
  52E4  CD3319        	 CALL MSOP
  52E7  CD3E17        	 CALL TIM255
  52EA  F1            	 POP AF
  52EB  CD2C16        	 call mdownpc
  52EE  AF            	 xor A
  52EF  32F000        	 ld (0f0h),A
  52F2  C33B16        	 JP MUP
  52F5                	iv47m:
  52F5  D1B6B2B6D720C2	 db "ﾑｶｲｶﾗ ","ﾂﾖｲﾁｶﾗ","ｶﾞﾊﾀﾗｸ"
  5307                	IV48:;12f to 13f
  5307  3E0D          	 ld A,13
  5309  210001        	 ld HL,0100h
  530C  C36450        	 JP IV2FL
  530F                	IV49:;12F 本4
  530F  3E2C          	 LD A,2cH
  5311  CD7660        	 CALL FLAGC
  5314  F1            	 POP AF
  5315  CD1161        	 CALL TAKARP
  5318  21582F        	 LD HL,IVITLS+104;1ﾕｳｼｬ
  531B  118263        	 LD DE,FLAG+2cH
  531E  3E08          	 LD A,8;0CDH
  5320  C32061        	 JP TK3
  5323                	IV4A:;ｺﾝﾊﾟｽ　(封印されている)
  5323  3E2D          	 ld A,2dh
  5325  CD7660        	 call flagc
  5328  F1            	 POP AF
  5329  CD1161        	 CALL TAKARP
  532C  3A8463        	 ld A,(flag+2eh)
  532F  17            	 rla
  5330  300B          	 jr nc,IV4AED
  5332  3ECF          	 LD A,0CFH
  5334  21602F        	 LD HL,IVITLS+112
  5337  118363        	 LD DE,FLAG+2dh
  533A  C3E060        	 JP TK2
  533D                	IV4AED:
  533D  219E4F        	 ld HL,IV2DM2
  5340  0E0C          	 ld C,12
  5342  CD4B19        	 call mso2
  5345  C3EA01        	 jp start
  5348                	IV4B:;daitaros,IV4Aと連動
  5348  218C54        	 ld HL,IV4C-12
  534B  0E0C          	 ld C,12
  534D  CD3319        	 call msop
  5350  3E2E          	 ld A,2eh
  5352  CD7660        	 call flagc
  5355  3A9563        	 ld A,(bookf)
  5358  FE0F          	 cp 0fh
  535A  C21705        	 jp nz,retsac
  535D  F1            	 pop AF
  535E  213336        	 LD HL,BOOKG	;12/2
  5361  CDC823        	 CALL OPNG2	;12/2
  5364  3E07          	 ld A,7
  5366  CD2117        	 call flashn
  5369  21FB31        	 ld HL,daig	;12/2
  536C  CDDD25        	 call opng	;12/2
  536F  218453        	 ld HL,IV4Bm
  5372  060C          	 ld B,12
  5374  CDC719        	 call msobr
  5377  3E07          	 ld A,7
  5379  CD2117        	 call flashn
  537C  218463        	 ld HL,flag+2eh
  537F  CBFE          	 set 7,(HL)
  5381  C3EA01        	 jp start
  5384                	IV4Bm:
  5384  D6B3D4B8BABACF	 db "ﾖｳﾔｸｺｺ","ﾏﾃﾞｷﾀｶ","ｱﾚｽﾖ､ ",0f9h
  5397  CEDDC6BAD2D7DA	 db "ﾎﾝﾆｺﾒﾗ","ﾚﾀﾉﾛｲｦ","ﾄｲﾃｸﾚﾃ","ｱﾘｶﾞﾄｳ",0f9h
  53B0  B5DAC9C5CAA4B2	 db "ｵﾚﾉﾅﾊ､","ｲﾆｼｴﾉ ","ﾕｳｼｬ  ","ﾀﾞｲﾀﾛｽ",0f9h
  53C9  B5DAB6DEB5CFB4	 db "ｵﾚｶﾞｵﾏ","ｴｦｺｺﾆ ","ﾖﾋﾞﾖｾﾀ",0f9h
  53DC  BAC9BBB2D4B8A6	 db "ｺﾉｻｲﾔｸ","ｦｵｺｼﾀ ","ﾓﾉｶﾞﾌﾀ","ﾀﾋﾞｺｺﾆ",0f9h
  53F5  D6D0B6DEB4AFC3	 db "ﾖﾐｶﾞｴｯ","ﾃｼﾏｯﾀ ",0f9h
  5402  BFB2C2C9C5CA3A	 db "ｿｲﾂﾉﾅﾊ",":ﾗｽﾄ: ",0f9h
  540F  D7BDC4CACFC0BE	 db "ﾗｽﾄﾊﾏﾀ","ｾﾝﾈﾝﾏｴ","ﾉｺﾄｦｸﾘ","ｶｴｽﾀﾒﾆ",0f9h
  5428  BAC9CAB3DADDC9	 db "ｺﾉﾊｳﾚﾝ","ﾉﾁｶﾗｦ ","ﾘﾖｳｼﾖｳ","ﾄｼﾃｲﾙ ",0f9h
  5441  BCDDC3DEDDCABA	 db "ｼﾝﾃﾞﾝﾊ","ｺﾉﾏﾁﾉ ","ｴﾈﾙｷﾞｰ","ｿﾉﾓﾉﾀﾞ",0f9h
  545A  3132B6B2C920C0	 db "12ｶｲﾉ ","ﾀｶﾗﾉﾌｳ","ｲﾝﾊｲﾏ ","ﾄｶﾚﾀ  ",0f9h
  5473  BFC9C0B6D720C4	 db "ｿﾉﾀｶﾗ ","ﾄﾄﾓﾆｻｷ","ﾆｽｽﾒ! ","ｱﾚｽ!  ",0f9h
  548C  BCAED3C2C920BB	 db "ｼｮﾓﾂﾉ ","ｻｲﾀﾞﾝ "
  5498                	IV4C:;13f to 12f
  5498  3E0C          	 ld A,12
  549A  210304        	 ld HL,0403h
  549D  C36450        	 JP IV2FL
  54A0                	IV4D:;MS 14F壁のヒント
  54A0  21AB54        	 ld HL,iv4dm
  54A3  0E11          	 ld C,17
  54A5  CD3319        	 call msop
  54A8  C31705        	 jp retsac
  54AB                	iv4dm:
  54AB  B6CDDEC6B6BACF	 db "ｶﾍﾞﾆｶｺ","ﾏﾚｼﾍﾔｦ","ｼﾗﾍﾞﾖ"
  54BC                	IV4E:;月夜の薬
  54BC  3E2F          	 ld A,2fh
  54BE  CD7660        	 call flagc
  54C1  F1            	 POP AF
  54C2  CD1161        	 CALL TAKARP
  54C5  3E84          	 LD A,84H
  54C7  21D82E        	 LD HL,Itlist+24
  54CA  118563        	 LD DE,FLAG+2fh
  54CD  C3E060        	 JP TK2
  54D0                	IV4F:;;歩いたところに戻すｽｲｯﾁ
  54D0  3E2B          	 LD A,2bh
  54D2  C35F4C        	 JP IV1F+2
  54D5                	IV50:;ﾏﾎｳﾉﾗﾝﾌﾟ	5F
  54D5  3E24          	 LD A,24H
  54D7  CD7660        	 CALL FLAGC
  54DA  F1            	 POP AF
  54DB  CD1161        	 CALL TAKARP
  54DE  21482F        	 LD HL,IVITLS+88
  54E1  117A63        	 LD DE,FLAG+24H
  54E4  3ECC          	 LD A,0CCH
  54E6  C3E060        	 JP TK2
  54E9                	IV51:;本1	4F
  54E9  3E25          	 LD A,25H
  54EB  CD7660        	 CALL FLAGC
  54EE  F1            	 POP AF
  54EF  CD1161        	 CALL TAKARP
  54F2  21382F        	 LD HL,IVITLS+72
  54F5  117B63        	 LD DE,FLAG+25H
  54F8  3E01          	 LD A,1;0CAH
  54FA  C32061        	 JP TK3
  54FD                	IV52:;本2	10F
  54FD  3E26          	 LD A,26H
  54FF  CD7660        	 CALL FLAGC
  5502  F1            	 POP AF
  5503  CD1161        	 CALL TAKARP
  5506  21402F        	 LD HL,IVITLS+80
  5509  117C63        	 LD DE,FLAG+26H
  550C  3E02          	 LD A,2;0CBH
  550E  C32061        	 JP TK3
  5511                	IV53:;ﾏﾖｹﾉｵｺｳ	8F
  5511  3E27          	 LD A,27H
  5513  CD7660        	 CALL FLAGC
  5516  F1            	 POP AF
  5517  CD1161        	 CALL TAKARP
  551A  21E82E        	 LD HL,ITLIST+40
  551D  117D63        	 LD DE,FLAG+27H
  5520  3E86          	 LD A,86H
  5522  C3E060        	 JP TK2
  5525                	IV54:;MISE4
  5525  216A60        	 LD HL,MISE4
  5528  C3D346        	 JP MISEJ
  552B                	IV55:;ﾒｶﾞﾐｿﾞｳ
  552B  3E02          	 LD A,2
  552D  327562        	 LD (Y),A
  5530  AF            	 XOR A
  5531  326662        	 LD (ST),A
  5534  218331        	 LD HL,MEGAMG
  5537  CDDD25        	 CALL OPNG
  553A  F1            	 POP AF
  553B  216755        	 LD HL,IV55M
  553E  0E11          	 LD C,17
  5540  CD4B19        	 CALL MSO2
  5543  016162        	 LD BC,ES
  5546  0A            	 LD A,(BC)
  5547  FE16          	 CP 16H
  5549  2858          	 JR Z,SEIES
  554B  03            	 INC BC
  554C  0A            	 LD A,(BC)
  554D  FE26          	 CP 26H
  554F  2856          	 JR Z,SEIET
  5551  03            	 INC BC
  5552  0A            	 LD A,(BC)
  5553  FE46          	 CP 46H
  5555  2854          	 JR Z,SEIEA
  5557                	IV55L:
  5557  3E05          	 LD A,5
  5559  CD1E17        	 CALL FLASH
  555C  217955        	 LD HL,IV55M+18
  555F  0E12          	 LD C,18
  5561  CD8919        	 CALL MSOB
  5564  C3EA01        	 JP START
  5567                	IV55M:
  5567  B6B2BCDEADC9D2	 DB "ｶｲｼﾞｭﾉ","ﾒｶﾞﾐｿﾞ","ｳｶﾞｱﾙ "
  5579  BFB3CBDEB6DECB	 DB "ｿｳﾋﾞｶﾞ","ﾋｶﾘｶｶﾞ","ﾔｲﾃｲﾙ "
  558B                	IV55M2:
  558B  B6D0C9C9DBB2A6	 DB "ｶﾐﾉﾉﾛｲ","ｦﾄｲﾃｶﾗ","ﾌﾀﾀﾋﾞｺ","ｺﾆｷﾅｻｲ"
  55A3                	SEIES:
  55A3  1E0B          	 LD E,0BH
  55A5  1806          	 JR SEIEQ
  55A7                	SEIET:
  55A7  1E12          	 LD E,12H
  55A9  1802          	 JR SEIEQ
  55AB                	SEIEA:
  55AB  1E21          	 LD E,21H
  55AD                	SEIEQ:
  55AD  1600          	 LD D,0
  55AF  215663        	 LD HL,FLAG
  55B2  19            	 ADD HL,DE
  55B3  08            	 EX AF,AF'
  55B4  7E            	 LD A,(HL)	;HL=FLAG
  55B5  17            	 RLA
  55B6  D2E855        	 JP NC,IV55L3
  55B9  08            	 EX AF,AF'	;A=EQ
  55BA  E6F0          	 AND 11110000B
  55BC  F605          	 OR 00000101B
  55BE  02            	 LD (BC),A
  55BF  CB67          	 BIT 4,A
  55C1  2012          	 JR NZ,SEIES2
  55C3  CB6F          	 BIT 5,A
  55C5  2004          	 JR NZ,SEIET2
  55C7                	SEIEA2:
  55C7  0662          	 LD B,98
  55C9  1802          	 JR SEIDP
  55CB                	SEIET2:
  55CB  0646          	 LD B,70
  55CD                	SEIDP:
  55CD  216562        	 LD HL,EDP
  55D0  7E            	 LD A,(HL)
  55D1  80            	 ADD A,B
  55D2  77            	 LD (HL),A
  55D3  1808          	 JR IV55L2
  55D5                	SEIES2:
  55D5  3A5F62        	 LD A,(AP)
  55D8  C68B          	 ADD A,139
  55DA  326462        	 LD (EAP),A
  55DD                	IV55L2:
  55DD  21BC4F        	 LD HL,IV2DM3+18
  55E0  0E12          	 LD C,18
  55E2  CD4B19        	 CALL MSO2
  55E5  C35755        	 JP IV55L
  55E8                	IV55L3:
  55E8  218B55        	 LD HL,IV55M2
  55EB  0E18          	 LD C,24
  55ED  CD4B19        	 CALL MSO2
  55F0  C3EA01        	 JP START
  55F3                	IV56:;困った人 ﾊｳﾚﾝの書（3）
  55F3  3E29          	 LD A,29H
  55F5  CD7660        	 CALL FLAGC
  55F8  E1            	 POP HL
  55F9  213256        	 LD HL,IV56M1
  55FC  CD1461        	 CALL TAKARP+3
  55FF  21A32F        	 LD HL,MISEG
  5602  CDDD25        	 CALL OPNG
  5605  213256        	 LD HL,IV56M1
  5608  0603          	 LD B,3
  560A  CDC719        	 CALL MSOBR
  560D  216762        	 LD HL,ITEM
  5610  010B00        	 LD BC,11
  5613  3E86          	 LD A,86H
  5615  EDB1          	 CPIR
  5617  2B            	 DEC HL
  5618  2803          	 JR Z,IV56B
  561A  C3EA01        	 JP START
  561D                	IV56B:
  561D  3600          	 LD (HL),0
  561F  218956        	 LD HL,IV56M2
  5622  0603          	 LD B,3
  5624  CDC719        	 CALL MSOBR
  5627  3E04          	 LD A,4;100B	;LD A,0CDH
  5629  21502F        	 LD HL,IVITLS+96
  562C  117F63        	 LD DE,FLAG+29H
  562F  C32061        	 JP TK3
  5632                	IV56M1:
  5632  D0BED4C9CBC4  	 DB "ﾐｾﾔﾉﾋﾄ"
  5638                	IV56M:
  5638  BACFAFC0C5A73A	 DB "ｺﾏｯﾀﾅｧ",":ﾏﾖｹﾉｵ","ｺｳ:ｦｵﾄ","ｼﾃｼﾏｯﾀ",0F9H
  5651  B1DAB6DEC5B2C4	 DB "ｱﾚｶﾞﾅｲ","ﾄﾏﾓﾉﾆ ","ｵｿﾜﾚﾃ ","ﾃﾞﾗﾚﾅｲ",0F9H
  566A  BFDAD6D8D320B2	 DB "ｿﾚﾖﾘﾓ ","ｲﾂﾏﾃﾞ ","ﾆｲｻﾝﾀﾁ","ｺｺﾆｲﾙﾝ","ﾀﾞﾛｳ? ",0F9H
  5689                	IV56M2:
  5689  B1DABDCAA420CF	 DB "ｱﾚｽﾊ､ ","ﾏﾖｹﾉｵｺ","ｳｦｱｹﾞﾀ",0F9H
  569C  B5B5B1D8B6DEC4	 DB "ｵｵｱﾘｶﾞ","ﾄｳ!   ","ｺﾚﾃﾞｿﾄ","ﾆﾃﾞﾗﾚﾙ",0F9H
  56B5  B7D0C6BADAA6B1	 DB "ｷﾐﾆｺﾚｦ","ｱｹﾞﾖｳ!","ｷｯﾄﾔｸﾆ","ﾀﾂﾀﾞﾛｳ",0F9H
  56CE                	IV57:;ALES IS ZAPED TO 6F! LAST1
  56CE  3E31          	 ld A,31h
  56D0  CD7660        	 call flagc
  56D3  E1            	 POP HL
  56D4  218A57        	 LD HL,IV57M
  56D7  0601          	 LD B,1
  56D9  CDC719        	 CALL MSOBR
  56DC  3E03          	 ld A,3
  56DE  CD1E17        	 call flash
  56E1  CD501B        	 CALL GROB
  56E4  21C828        	 LD HL,GRD2
  56E7  CD351A        	 CALL WGRO
  56EA  21C333        	 LD HL,LASTG
  56ED  CDC823        	 CALL OPNG2
  56F0  3E05          	 LD A,5
  56F2  CD1E17        	 CALL FLASH
                      	; LD A,0C9H
                      	; LD HL,ITEM
                      	; LD BC,11
                      	; CPIR
                      	; DEC HL
                      	; JR NZ,ZAPING
                      	; LD (HL),0
  56F5  215663        	 ld HL,flag+0b
  56F8  AF            	 xor A
  56F9  BE            	 cp (HL)
  56FA  2840          	 jr z,ZAPING
  56FC  216863        	 ld HL,flag+12h
  56FF  BE            	 cp (HL)
  5700  283A          	 jr z,ZAPING
  5702  217763        	 ld HL,flag+21h
  5705  BE            	 cp (HL)
  5706  2834          	 jr z,ZAPING
  5708  CD2A25        	 call grput2
  570B  219D57        	 LD HL,IV57M2
  570E  0603          	 LD B,3
  5710  CDC719        	 CALL MSOBR
                      	
  5713  217332        	 ld HL,RIDNG
  5716  CDC823        	 call OPNG2
  5719  CD3A17        	 call tim30
  571C  CD2A25        	 call grput2
  571F  210333        	 ld HL,KOKORG
  5722  CDC823        	 call OPNG2
  5725  CD3A17        	 call tim30
  5728  CD2A25        	 call grput2
  572B  21BB32        	 ld HL,HARTG
  572E  CDC823        	 call OPNG2
  5731  CD3A17        	 call tim30
                      	
  5734  218763        	 ld HL,FLAG+31h
  5737  3680          	 ld (HL),80h
  5739  C3EA01        	 JP START
  573C                	ZAPING:
  573C  CDF923        	 CALL SHAKE
  573F  21E257        	 LD HL,ZAPM
  5742  0601          	 LD B,1
  5744  CDC719        	 CALL MSOBR
  5747  CD501B        	 CALL GROB
  574A  110202        	 LD DE,0202H
  574D  0611          	 LD B,17
  574F  CDF1BF        	 CALL 0BFF1H
  5752  23            	 INC HL
  5753  110304        	 LD DE,0403H
  5756  0615          	 LD B,21
  5758  CDF1BF        	 CALL 0BFF1H
  575B  CD6C24        	 CALL BEPZPC
  575E  CDFDBC        	 CALL 48381
  5761  215F62        	 LD HL,AP
  5764  4E            	 LD C,(HL)
  5765  23            	 INC HL
  5766  5E            	 LD E,(HL)
  5767  23            	 INC HL
  5768  AF            	 XOR A
  5769  77            	 LD (HL),A
  576A  23            	 INC HL
  576B  77            	 LD (HL),A
  576C  23            	 INC HL
  576D  77            	 LD (HL),A
  576E  23            	 INC HL
  576F  71            	 LD (HL),C
  5770  23            	 INC HL
  5771  73            	 LD (HL),E
  5772  CD8C1B        	 CALL RAND4
  5775  3C            	 INC A
  5776  217362        	 LD HL,FL
  5779  77            	 LD (HL),A
  577A  23            	 INC HL
  577B  77            	 LD (HL),A
  577C  23            	 INC HL
  577D  77            	 LD (HL),A
  577E  326A63        	 LD (FLAG+14H),A
  5781  327663        	 LD (FLAG+20H),A
  5784  327863        	 LD (FLAG+22H),A
  5787  C3EA01        	 JP START
  578A                	IV57M:
  578A  BABAC3DEB8C1CA	 DB "ｺｺﾃﾞｸﾁ","ﾊﾃﾖ!  ","ｱﾚｽ!!!",0F9H
  579D                	IV57M2:
  579D  33C6DDC9B6D0B6	 DB "3ﾆﾝﾉｶﾐ","ｶﾞｱﾗﾜﾚ","ｱﾚｽｦ  ","ｶﾊﾞｯﾀ!",0f9h
  57B6  BBB2BADEC920C0	 db "ｻｲｺﾞﾉ ","ﾀﾀｶｲﾀﾞ","ｷｦﾇｸﾅ!",0f9h
  57C9  BDB6DEC0CA20BC	 db "ｽｶﾞﾀﾊ ","ｼﾛｲﾋｶﾘ","ﾄﾅｯﾃｷｴ","ﾃｲｯﾀ･･",0f9h
  57E2                	ZAPM:
  57E2  B1DABDC9B6D7C0	 DB "ｱﾚｽﾉｶﾗ","ﾀﾞｶﾞ  ","ｸﾀﾞｹﾁﾙ","･･････",0F9H
  57FB  C3DEDDBEC2C9BF	 DB "ﾃﾞﾝｾﾂﾉｿｳﾋﾞﾊｳｼﾅﾜﾚ､";"YOU  HAVE  TO  DO" 17
  580C  C4B7B6DED3C4DE	 DB "ﾄｷｶﾞﾓﾄﾞｯﾃｲｸﾉｦｶﾝｼﾞﾀ･･｡";"MISSON  OF  DAITALOS!" 21
  5821                	IV58:;15PUZZLE
  5821  E1            	 POP HL
  5822  21BB59        	 LD HL,IV58M
  5825  CD1461        	 CALL TAKARP+3
  5828  21C159        	 LD HL,IV58M+6
  582B  0E06          	 LD C,6
  582D  CD2F19        	 CALL MSO
  5830  CD3658        	 CALL IV58L-3
  5833  C3EA01        	 JP START
  5836  2100F8        	 ld HL,0F800h
  5839                	IV58L:
  5839  E5            	 push HL	;
  583A  21B058        	 ld HL,pjl1
  583D  E5            	 push HL		;
  583E  CD9D59        	 call phlset
  5841  E5            	 push HL			;
  5842  CD8C1B        	 call RAND4
  5845  FE01          	 cp 1
  5847  3821          	 jr c,pzup
  5849  2835          	 jr z,pzdw
  584B  FE03          	 cp 3
  584D  3847          	 jr c,pzrg
  584F                	pzlf:
  584F  11A759        	 ld DE,pzdata
  5852  B7            	 or A
  5853  ED52          	 sbc HL,DE
  5855  7D            	 ld A,L
  5856  E1            	 pop HL			;
  5857  FE04          	 cp 4
  5859  C8            	 ret z
  585A  FE09          	 cp 9
  585C  C8            	 ret z
  585D  FE0E          	 cp 14
  585F  C8            	 ret z
  5860  FE13          	 cp 19
  5862  C8            	 ret z
  5863  23            	 inc HL
  5864  7E            	 ld A,(HL)
  5865  3600          	 ld (HL),0
  5867  2B            	 dec HL
  5868  77            	 ld (HL),A
  5869  C9            	 ret		;
  586A                	pzup:
  586A  11A759        	 ld DE,pzdata
  586D  B7            	 or A
  586E  ED52          	 sbc HL,DE
  5870  7D            	 ld A,L
  5871  E1            	 pop HL			;
  5872  FE0F          	 cp 15
  5874  D0            	 ret nc		;
  5875  E5            	 push HL			;
  5876  110500        	 ld DE,5
  5879  19            	 add HL,DE
  587A  7E            	 ld A,(HL)
  587B  3600          	 ld (HL),0
  587D  E1            	 pop HL			;
  587E  77            	 ld (HL),A
  587F  C9            	 ret		;
  5880                	pzdw:
  5880  11A759        	 ld DE,pzdata
  5883  B7            	 or A
  5884  ED52          	 sbc HL,DE
  5886  7D            	 ld A,L
  5887  E1            	 pop HL			;
  5888  FE05          	 cp 5
  588A  D8            	 ret c		;
  588B  E5            	 push HL			;
  588C  11FBFF        	 ld DE,10000h-5
  588F  19            	 add HL,DE
  5890  7E            	 ld A,(HL)
  5891  3600          	 ld (HL),0
  5893  E1            	 pop HL			;
  5894  77            	 ld (HL),A
  5895  C9            	 ret		;
  5896                	pzrg:
  5896  11A759        	 ld DE,pzdata
  5899  B7            	 or A
  589A  ED52          	 sbc HL,DE
  589C  7D            	 ld A,L
  589D  E1            	 pop HL			;
  589E  B7            	 or A
  589F  C8            	 ret z		;
  58A0  FE05          	 cp 5
  58A2  C8            	 ret z		;
  58A3  FE0A          	 cp 10
  58A5  C8            	 ret z		;
  58A6  FE0F          	 cp 15
  58A8  C8            	 ret z		;
  58A9  2B            	 dec HL
  58AA  7E            	 ld A,(HL)
  58AB  3600          	 ld (HL),0
  58AD  23            	 inc HL
  58AE  77            	 ld (HL),A
  58AF  C9            	 ret		;
  58B0                	pjl1:
  58B0  E1            	 pop HL	;
  58B1  2D            	 dec L
  58B2  C23958        	 jp nz,IV58L
  58B5  25            	 dec H
  58B6  C23958        	 jp nz,IV58L
  58B9  210000        	 ld HL,0
  58BC  39            	 add HL,SP
  58BD  22E358        	 ld (pjl2+1),HL
  58C0                	mainlp:
  58C0  CD8859        	 call pzpnt
  58C3  21E258        	 ld HL,pjl2
  58C6  E5            	 push HL
  58C7  CD9D59        	 call phlset
  58CA  E5            	 push HL			;
  58CB  CDFDBC        	 call 48381
  58CE  FE1F          	 cp 1fh
  58D0  CA8058        	 jp z,pzdw
  58D3  FE20          	 cp 20h
  58D5  CA6A58        	 jp z,pzup
  58D8  FE21          	 cp 21h
  58DA  CA4F58        	 jp z,pzlf
  58DD  FE22          	 cp 22h
  58DF  CA9658        	 jp z,pzrg
  58E2                	pjl2:
  58E2  310000        	 ld SP,0
  58E5  FE51          	 cp 51h
  58E7  C8            	 ret z
  58E8  21A759        	 ld HL,pzdata
  58EB  3E30          	 ld A,"0"
  58ED                	pzck:
  58ED  3C            	 inc A
  58EE  EDA1          	 cpi
  58F0  28FB          	 jr z,pzck
  58F2  114FA6        	 ld DE,65536-(pzdata+10)
  58F5  19            	 add HL,DE
  58F6  7D            	 ld A,L
  58F7  B7            	 or A
  58F8  20C6          	 jr nz,mainlp
  58FA  21B059        	 ld HL,pzdata+9
  58FD  3E40          	 ld A,40h
  58FF                	pzck2:
  58FF  3C            	 inc A
  5900  EDA1          	 cpi
  5902  28FB          	 jr z,pzck2
  5904  1145A6        	 ld DE,65536-(pzdata+20)
  5907  19            	 add HL,DE
  5908  7D            	 ld A,L
  5909  B7            	 or A
  590A  20B4          	 jr nz,mainlp
  590C                	pzcomp:
  590C  CD8859        	 call pzpnt
  590F  212659        	 ld HL,pzcmpm
  5912  0E10          	 LD C,16
  5914  CD3319        	 call MSOP
  5917  CD5D24        	 CALL BEPBKC
  591A  CDFDBC        	 CALL 48381
  591D  213659        	 LD HL,pzcmpm+16
  5920  0604          	 LD B,4
  5922  CDC719        	 CALL MSOBR
  5925  C9            	 ret
  5926                	pzcmpm:
  5926  436F6E67726174	 db "Congratulations!"
  5936  B1D8B6DEC4B3CE	 DB "ｱﾘｶﾞﾄｳ","ﾎﾝﾄｳﾆｳ","ﾚｼｲｾﾞ!",0F9H
  5949  B5C4B8C53F20BC	 DB "ｵﾄｸﾅ? ","ｼﾞｮｳﾎｳ","ｵｼｴﾙｾﾞ",0F9H
  595C  3136B6B2202049	 DB "16ｶｲ  ","Iｷｰｦｵｽ","ﾄ､ｲﾛｶﾞ","ﾊﾝﾃﾝｽﾙ",0F9H
  5975  BDDDCFBEDDA4BF	 DB "ｽﾝﾏｾﾝ､","ｿﾚﾀﾞｹ ","ﾃﾞｽ･･･",0F9H
  5988                	pzpnt:
  5988  21A759        	 ld HL,pzdata
  598B  1601          	 ld D,01h
  598D  0604          	 ld B,4
  598F                	pzpl1:
  598F  C5            	 push BC
  5990  0605          	 ld B,5
  5992  1E01          	 ld E,1
  5994  CDF1BF        	 CALL 0bff1h
  5997  C1            	 pop BC
  5998  23            	 inc HL
  5999  14            	 inc D
  599A  10F3          	 djnz pzpl1
  599C  C9            	 ret
  599D                	phlset:
  599D  21A759        	 ld HL,pzdata
  59A0  AF            	 xor A
  59A1  0EFF          	 ld C,0ffh
  59A3  EDB1          	 cpir
  59A5  2B            	 dec HL
  59A6  C9            	 ret
  59A7                	pzdata:
  59A7  31323334353637	 db "123456789ABCDEFGHIJ",0
  59BB                	IV58M:
  59BB  CDB7B6DE3F20  	 DB "ﾍｷｶﾞ? "
  59C1  4F4E3AB5DCD9  	 DB "ON:ｵﾜﾙ"
  59C7                	IV59:;ダークゾーン
  59C7  3E2A          	 LD A,2AH
  59C9  CD7660        	 CALL FLAGC
  59CC  F1            	 POP AF
  59CD  CD501B        	 CALL GROB
  59D0  219463        	 LD HL,DZF
  59D3  3680          	 LD (HL),80H
  59D5  CDFDBC        	 CALL 48381
  59D8  FE20          	 CP 20H
  59DA  2802          	 JR Z,IV59L
  59DC  1802          	 JR IV59L2
  59DE                	IV59L:
  59DE  3600          	 LD (HL),0
  59E0                	IV59L2:
  59E0  F5            	 PUSH AF
  59E1  CD2A25        	 CALL GRPUT2
  59E4  F1            	 POP AF
  59E5  C33B06        	 JP MALP+3
  59E8                	IV5A:;ﾛﾚﾝｽ
  59E8  3E30          	 ld A,30h
  59EA  CD7660        	 call flagc
  59ED  F1            	 pop AF
  59EE  CD3E17        	 call TIM255
  59F1  3E01          	 ld A,1
  59F3  CD2117        	 call FLASHN
  59F6  CD5D24        	 call BEPBKC
  59F9  CD3617        	 call TIMBTL
  59FC  21B53F        	 ld HL,TGRB+120*4
  59FF  CDDD25        	 call OPNG
  5A02  212A5A        	 ld HL,iv5am
  5A05  0604          	 ld B,4
  5A07  CDC719        	 call MSOBR
  5A0A  3E04          	 LD A,4
  5A0C  CDB25F        	 CALL BATTLB
  5A0F  21885A        	 ld HL,iv5am2
  5A12  0608          	 ld B,8
  5A14  CDC719        	 call MSOBR
  5A17  CD5D24        	 call BEPBKC
  5A1A  21C34C        	 ld HL,IV18M+24
  5A1D  0E12          	 ld C,18
  5A1F  CD8919        	 call MSOB
  5A22  218663        	 ld HL,FLAG+30h
  5A25  CBFE          	 set 7,(HL)
  5A27  C3EA01        	 jp start
  5A2A                	iv5am:
  5A2A  D6B8BABAC620C0	 db "ﾖｸｺｺﾆ ","ﾀﾄﾞﾘﾂｲ","ﾀﾅ､ﾎﾒﾃ","ﾔﾙｿﾞ  ",0f9h
  5A43  DCC0BCA6C0B5BE	 db "ﾜﾀｼｦﾀｵ","ｾﾊﾞ15ｶ","ｲﾍﾉﾐﾁﾊ","ﾋﾗｹﾙｿﾞ",0f9h
  5A5C  BCB6BCB5CFB4B6	 db "ｼｶｼｵﾏｴ","ｶﾞｳｴﾆ ","ｲｸｺﾄﾊ ","ﾃﾞｷﾅｲ ",0f9h
  5A75  BABAC3DEB8C1CA	 db "ｺｺﾃﾞｸﾁ","ﾊﾃﾖ!  ","ｱﾚｽﾖ!!",0f9h
  5A88                	iv5am2:
  5A88  CFB2AFC0D6A5B1	 db "ﾏｲｯﾀﾖ･","ｱﾚｽ･･･",0f9h
  5A95  DCC0BCC0C1CABA	 db "ﾜﾀｼﾀﾁﾊ","ｺﾉﾖｦｳﾗ","ﾝﾃﾞｲﾙ ",0f9h
  5AA8  DCC0BCC0C1CAB5	 db "ﾜﾀｼﾀﾁﾊ","ｵﾓｲﾂﾐﾉ","ｴﾝｻﾞｲｦ","ｶｹﾗﾚﾃ ",0f9h
  5AC1  D7BDC4C0C1C4DB	 db "ﾗｽﾄﾀﾁﾄ","ﾛｳｺﾞｸﾆ","ｲﾚﾗﾚﾀ ",0f9h
  5AD4  BCAEB9B2BBDAD9	 db "ｼｮｹｲｻﾚ","ﾙﾅｶﾃﾞ ","ｺﾉﾖﾉﾅｶ","ｦｳﾗﾐ  ",0f9h
  5AED  DCC0BCC0C1CABE	 db "ﾜﾀｼﾀﾁﾊ","ｾｶｲｶﾞｺ","ﾜﾚﾙｺﾄｦ","ｲﾉｯﾀ  ",0f9h
  5B06  BCB6BCBFC920D4	 db "ｼｶｼｿﾉ ","ﾔﾎﾞｳﾊ ","ｼｭｳﾏｸｦ","ﾑｶｴﾙ･･",0f9h
  5B1F  BADAC3DED6B2C9	 db "ｺﾚﾃﾞﾖｲ","ﾉﾀﾞ､･･","ﾗｽﾄｦﾀｵ","･･ｾ･ｱ･","･･ﾚ･ｽ･",0f9h
  5B3E                	IV5B:;１４階のﾌｳｲﾝ
  5B3E  3E30          	 LD A,30h
  5B40  CD7660        	 CALL FLAGC
  5B43  C3DE49        	 JP KAGI
  5B46                	IV5C:;14F 賢者ﾌｧﾙ
  5B46  3E32          	 ld A,32h
  5B48  32755B        	 ld (iv5gl+1),A
  5B4B  CD7660        	 call flagc
  5B4E  21C55B        	 ld HL,iv5cm
                      	;jp iv5g
  5B51                	iv5g:
  5B51  D1            	 pop DE
  5B52  E5            	 push HL
  5B53  213336        	 LD HL,BOOKG	;12/2
  5B56  CDC823        	 CALL OPNG2	;12/2
  5B59  3E05          	 ld A,5
  5B5B  CD2117        	 call FLASHN
  5B5E  CD0919        	 call MCLEAR
  5B61  0603          	 ld B,3
  5B63  E1            	 pop HL
  5B64  CDC719        	 call MSOBR
  5B67  3E05          	 ld A,5
  5B69  CD2117        	 call FLASHN
  5B6C  21D95C        	 ld HL,iv5gm
  5B6F  0601          	 ld B,1
  5B71  CDC719        	 call MSOBR
  5B74                	iv5gl:
  5B74  1E00          	 ld E,0;A
  5B76  1600          	 ld D,0;0
  5B78  215663        	 ld HL,flag
  5B7B  19            	 add HL,DE
  5B7C  CBFE          	 set 7,(HL)
  5B7E  E5            	 push HL	;
  5B7F  218863        	 ld HL,flag+32h
  5B82  AF            	 xor A
  5B83  010400        	 ld BC,4
  5B86  EDB1          	 cpir
  5B88  E1            	 pop HL		;
  5B89  CAEA01        	 jp z,START
  5B8C  3600          	 ld (HL),0
  5B8E  EB            	 ex DE,HL
  5B8F  D5            	 push DE
  5B90  3E05          	 LD A,5
  5B92  CD2117        	 CALL FLASHN
  5B95  D1            	 pop DE
  5B96  21302F        	 LD HL,IVITLS+64
  5B99  3EC9          	 LD A,0C9H
  5B9B  C3E060        	 JP TK2
  5B9E                	IV5D:;14F 賢者ｳｨﾙ
  5B9E  3E33          	 ld A,33h
  5BA0  32755B        	 ld (iv5gl+1),A
  5BA3  CD7660        	 call flagc
  5BA6  210A5C        	 ld HL,iv5dm
  5BA9  18A6          	 jr iv5g
  5BAB                	IV5E:;14F ﾊｳﾚﾝ1世
  5BAB  3E34          	 ld A,34h
  5BAD  32755B        	 ld (iv5gl+1),A
  5BB0  CD7660        	 call flagc
  5BB3  214F5C        	 ld HL,iv5em
  5BB6  1899          	 jr iv5g
  5BB8                	IV5F:;14F ﾀﾞｲﾀﾛｽ
  5BB8  3E35          	 ld A,35h
  5BBA  32755B        	 ld (iv5gl+1),A
  5BBD  CD7660        	 call flagc
                      	; ld HL,daig	;12/2
                      	; call OPNG	;12/2
  5BC0  218E5C        	 ld HL,iv5fm
  5BC3  188C          	 jr iv5g
  5BC5                	iv5cm:
  5BC5  B7D0B6DEB1DABD	 db "ｷﾐｶﾞｱﾚ","ｽｶ､ﾜﾀｼ","ﾊｹﾝｼﾞｬ","ﾌｧﾙ   ",0f9h
  5BDE  C0DEB2C0DBBDC9	 db "ﾀﾞｲﾀﾛｽ","ﾉｲｯﾀﾄｵ","ﾘｷﾐﾊ  ","ﾘｯﾊﾟﾀﾞ",0f9h
  5BF7  B6C5D7BDDE20D4	 db "ｶﾅﾗｽﾞ ","ﾔﾂｦﾀｵｼ","ﾃｸﾙﾝﾀﾞ",0f9h
  5C0A                	iv5dm:
  5C0A  D6B8B7C0C5A4DC	 db "ﾖｸｷﾀﾅ､","ﾜﾀｼﾊ  ","ｹﾝｼﾞｬ ","ｳｨﾙ   ",0f9h
  5C23  DCC0BCC62020C9	 db "ﾜﾀｼﾆ  ","ﾉｺｻﾚﾀ ","ﾁｶﾗﾉ  ","ｽﾍﾞﾃｦ ",0f9h
  5C3C  D7BDC4A6C0B5BD	 db "ﾗｽﾄｦﾀｵ","ｽｵﾏｴﾆ ","ｻｻｹﾞﾖｳ",0f9h
  5C4F                	iv5em:
  5C4F  DCC0BCCA2020CA	 db "ﾜﾀｼﾊ  ","ﾊｳﾚﾝｺｸ","ｼｮﾀﾞｲ ","ｺｳﾃｲﾅﾘ",0f9h
  5C68  B1DABDA42020BF	 db "ｱﾚｽ､  ","ｿﾅﾀﾄﾁｶ","ﾗｦｱﾜｾ ",0f9h
  5C7B  DCDADCDAD320C0	 db "ﾜﾚﾜﾚﾓ ","ﾀﾀｶｯﾃ ","ﾕｸｿﾞ! ",0f9h
  5C8E                	iv5fm:
  5C8E  B1DABD21BAC9C0	 db "ｱﾚｽ!ｺﾉ","ﾀﾞｲﾀﾛｽ","ﾓｱｲﾂﾄﾀ","ﾀｶｳｾﾞ!",0f9h
  5CA7  D4C2A6C0B5BEC5	 db "ﾔﾂｦﾀｵｾ","ﾅｶｯﾀ  ","ﾜﾀｼﾉｾｲ","ﾀﾞｶﾗﾅ ",0f9h
  5CC0  D3B3BDB8DE20BF	 db "ﾓｳｽｸﾞ ","ｿｺﾆﾔﾂ ","ｶﾞｲﾙ  ","ｶﾞﾝﾊﾞﾚ",0f9h
  5CD9                	iv5gm:
  5CD9  B1DABDC92020D5	 db "ｱﾚｽﾉ  ","ﾕｳｷｶﾞ ","ﾋﾄﾂ   ","ﾀｶﾏｯﾀ!",0f9h
  5CF2                	IV60:;守護の壁
  5CF2  3A7B62        	 ld A,(URDL)
  5CF5  FE04          	 cp 4
  5CF7  C21705        	 jp nz,RETSAC
  5CFA  E1            	 pop HL
  5CFB  218C63        	 ld HL,flag+36h
  5CFE  AF            	 xor A
  5CFF  BE            	 cp (HL)
  5D00  C23806        	 jp nz,MALP	;nz=yattaato
  5D03  214B33        	 ld HL,FUINDG
  5D06  CDDD25        	 call OPNG
  5D09  21195D        	 ld HL,iv60m
  5D0C  0E18          	 ld C,24
  5D0E  CD4B19        	 call mso2
  5D11  AF            	 xor A
  5D12  3C            	 inc A
  5D13  327B62        	 ld (URDL),A
  5D16  C3EA01        	 jp start
  5D19                	iv60m:
  5D19  BDBBCFBCDEB2CF	 db "ｽｻﾏｼﾞｲ","ﾏﾘｮｸﾃﾞ","ﾌｳｲﾝｻﾚ","ﾋﾗｶﾅｲ!"
  5D31                	IV61:;守護1
  5D31  3E37          	 ld A,37h
  5D33  CD7660        	 call flagc
  5D36  E1            	 pop HL
  5D37  214E5D        	 ld HL,iv61m
  5D3A  CD1461        	 call TAKARP+3
  5D3D  218331        	 ld HL,MEGAMG
  5D40  CDDD25        	 call OPNG
  5D43  21545D        	 ld HL,iv61m+6
  5D46  0E0C          	 ld C,12
  5D48  CD8919        	 call msob
  5D4B  C3EA01        	 jp start
  5D4E                	iv61m:
  5D4E  C4DEB3BFDEB3  	 db "ﾄﾞｳｿﾞｳ"
  5D54  3AB5CFD3D8A6BB	 db ":ｵﾏﾓﾘｦ","ｻｻｹﾞﾖ:"
  5D60                	IV62:;守護2
  5D60  3E38          	 ld A,38h
  5D62  18CF          	 jr IV61+2
  5D64                	IV63:;ﾗｽﾄM1
  5D64  3E39          	 ld A,39h
  5D66  CD7660        	 call flagc
  5D69  E1            	 pop HL
  5D6A  CD5D24        	 call BEPBKC
  5D6D  217D5D        	 ld HL,iv63m
  5D70  0E18          	 ld C,24
  5D72  CD2F19        	 call mso
  5D75  218F63        	 ld HL,flag+39h
  5D78  CBFE          	 set 7,(HL)
  5D7A  C3EA01        	 jp start
  5D7D                	iv63m:
  5D7D  CEABA4BFB3B6BA	 db "ﾎｫ､ｿｳｶ","ｺｺﾏﾃﾞ ","ﾀﾄﾞﾘﾂｲ","ﾀﾉｶ   "
  5D95                	IV64:;ﾗｽﾄM2
  5D95  3E3A          	 ld A,3ah
  5D97  CD7660        	 call flagc
  5D9A  E1            	 pop HL
  5D9B  CD5D24        	 call BEPBKC
  5D9E  219063        	 ld HL,flag+3ah
  5DA1  CBFE          	 set 7,(HL)
  5DA3  21A85D        	 ld HL,iv64m
  5DA6  18C8          	 jr IV63+12
  5DA8                	iv64m:
  5DA8  C0DEB6DEB7BBCF	 db "ﾀﾞｶﾞｷｻ","ﾏﾜｺｺﾆﾊ","ﾄﾄﾞﾘﾂｹ","ﾊｼﾅｲ  "
  5DC0                	IV65:;ﾗｽﾄﾊﾞﾄﾙ
  5DC0  3E3B          	 ld A,3bh
  5DC2  CD7660        	 call flagc
  5DC5  E1            	 pop HL
  5DC6  21C333        	 ld HL,lastg
  5DC9  CDC823        	 call OPNG2
  5DCC  21045E        	 ld HL,iv65m
  5DCF  0604          	 ld B,4
  5DD1  CDC719        	 call msobr
  5DD4  3E05          	 LD A,5
  5DD6  CDB25F        	 CALL BATTLB
  5DD9  21505E        	 ld HL,lastm
  5DDC  0604          	 ld B,4
  5DDE  CDC719        	 call msobr
  5DE1  3E0A          	 ld A,10
  5DE3  CD1E17        	 call flash
  5DE6  CD5D24        	 call BEPBKC
  5DE9  CD3E17        	 call tim255
  5DEC  CD3E17        	 call tim255
  5DEF  21A85E        	 ld HL,lastm2
  5DF2  0606          	 ld B,6
  5DF4  CDC719        	 call msobr
  5DF7  3E06          	 ld A,6
  5DF9  CD2117        	 call flashn
  5DFC  3E80          	 ld A,80h
  5DFE  329163        	 ld (flag+3bh),A
  5E01  C3EA01        	 jp start
  5E04                	iv65m:
  5E04  B7BBCFCAB6D0A6	 db "ｷｻﾏﾊｶﾐ","ｦﾓﾐｶﾀﾆ","ﾂｹﾀﾉｶ ",0f9h
  5E17  BCB6BCDCC0BCCA	 db "ｼｶｼﾜﾀｼ","ﾊﾏｴﾉﾖｳ","ﾅｼｯﾊﾟｲ","ﾊｼﾅｲ! ",0F9h
  5E30  BAB221B1DABDF9	 db "ｺｲ!ｱﾚｽ",0f9h
  5E37  B7BBCFA6C4B7C9	 db "ｷｻﾏｦﾄｷ","ﾉｶﾅﾀﾆ ","ﾎｳﾑｯﾃ ","ｸﾚﾙﾜ!!",0f9h
  5E50                	lastm:
  5E50  B8DEB1A7A7A721	 db "ｸﾞｱｧｧｧ","!!!!!!",0f9h
  5E5D  CFC0BCC3D320DC	 db "ﾏﾀｼﾃﾓ ","ﾜｶﾞﾔﾎﾞ","ｳﾊ･ｶﾅﾜ","ﾇｶ･･･!",0f9h
  5E76  BCB6BCCFC0A4DC	 db "ｼｶｼﾏﾀ､","ﾜﾀｼﾉﾖｳ","ﾅﾓﾉｶﾞ ","ｱﾗﾜﾚﾙ･",0f9h
  5E8F  BADAC3DEB5DCAF	 db "ｺﾚﾃﾞｵﾜ","ｯﾀﾜｹﾃﾞ","ﾜﾅｲ･･･","ｱﾚｽ･･･",0f9h
  5EA8                	lastm2:
  5EA8  D7BDC4CACBB6D8	 db "ﾗｽﾄﾊﾋｶ","ﾘﾄﾄﾓﾆ ","ｷｴﾀ･･･",0f9h
  5EBB  C0DEB2C0DBBDC9	 db "ﾀﾞｲﾀﾛｽ","ﾉｺｴｶﾞ ","ｷｺｴﾙ  ",0f9h
  5ECE  3AC0DEB2C0DBBD	 db ":ﾀﾞｲﾀﾛ","ｽ:ﾕｳｼｬ","ｱﾚｽﾖ､ ","ﾖｸﾔｯﾀ ",0f9h
  5EE7  BFC4C6C3DEC3D0	 db "ｿﾄﾆﾃﾞﾃ","ﾐﾝﾅﾉﾓﾄ","ﾆｶｴﾙｶﾞ","ｲｲ････",0f9h
  5F00  DCC0BCC0C1CAB7	 db "ﾜﾀｼﾀﾁﾊ","ｷﾐﾀﾁﾉ ","ｼｱﾜｾｦ ","ｲﾉｯﾃﾙﾖ",0f9h
  5F19  BBD7CADEC0DED5	 db "ｻﾗﾊﾞﾀﾞ","ﾕｳｼｬ  ","ｱﾚｽ!  ",0f9h
                      	
                      	
                      	
  5F2C                	WARPSL:
  5F2C  00            	 NOP
  5F2D  D5            	 PUSH DE
  5F2E  11B82C        	 LD DE,MRAM
  5F31  218A61        	 LD HL,IVENTM+18
  5F34  0E0C          	 LD C,12
  5F36  CD3319        	 CALL MSOP
  5F39  CD3E17        	 CALL TIM255
  5F3C  D1            	 POP DE
  5F3D  7A            	 LD A,D
  5F3E  327462        	 LD (X),A
  5F41  7B            	 LD A,E
  5F42  327562        	 LD (Y),A
  5F45  E1            	 POP HL
  5F46  CD3424        	 CALL BEPMGC
  5F49  C3EA01        	 JP MPL-3
  5F4C                	FLUP:
  5F4C  11B82C        	 LD DE,MRAM
  5F4F  219661        	 LD HL,IVENTM+30
  5F52  0E12          	 LD C,18
  5F54  CD2F19        	 CALL MSO
  5F57  FE31          	 CP 31H
  5F59  2804          	 JR Z,FLUPKB
  5F5B  E1            	 POP HL
  5F5C  C33B06        	 JP MALP+3
  5F5F                	FLUPKB:
  5F5F  0606          	 LD B,6
  5F61  CD1C1A        	 CALL GRD
  5F64  CD6724        	 CALL BEPFLC
  5F67                	FLUPK:
  5F67  3A7362        	 LD A,(FL)
  5F6A  3C            	 INC A
  5F6B  327362        	 LD (FL),A
  5F6E  0606          	 LD B,6
  5F70  CD1C1A        	 CALL GRD
  5F73  F1            	 POP AF
  5F74  C3EA01        	 JP MPL-3
  5F77                	FLDN:
  5F77  CD0919        	 CALL MCLEAR
  5F7A  11B82C        	 LD DE,MRAM
  5F7D  219661        	 LD HL,IVENTM+30
  5F80  010C00        	 LD BC,12
  5F83  EDB0          	 LDIR
  5F85  21A861        	 LD HL,IVENTM+48
  5F88  0E06          	 LD C,6
  5F8A  EDB0          	 LDIR
  5F8C  CD3619        	 CALL LOOP10-7
  5F8F  CDFDBC        	 CALL 48381
  5F92  FE31          	 CP 31H
  5F94  2804          	 JR Z,FLDNKB
  5F96  E1            	 POP HL
  5F97  C33B06        	 JP MALP+3
  5F9A                	FLDNKB:
  5F9A  0606          	 LD B,6
  5F9C  CD1C1A        	 CALL GRD
  5F9F  CD6724        	 CALL BEPFLC
  5FA2                	FLDNK:
  5FA2  3A7362        	 LD A,(FL)
  5FA5  3D            	 DEC A
  5FA6  327362        	 LD (FL),A
  5FA9  0606          	 LD B,6
  5FAB  CD1C1A        	 CALL GRD
  5FAE  F1            	 POP AF
  5FAF  C3EA01        	 JP MPL-3
                      	
                      	;-----------------BOSS BATTLE----------------------
                      	
  5FB2                	BATTLB:;
  5FB2  E60F          	 AND 0FH
  5FB4  329663        	 LD (TNO),A
  5FB7  F5            	 PUSH AF
  5FB8  21F25F        	 LD HL,TNAMEB
  5FBB  110600        	 LD DE,6
  5FBE  D5            	 PUSH DE
  5FBF  CD3221        	 CALL XSAN
  5FC2  C1            	 POP BC
  5FC3  119763        	 LD DE,TNNAME
  5FC6  EDB0          	 LDIR
  5FC8  F1            	 POP AF
  5FC9  211660        	 LD HL,TPDATB
  5FCC  110400        	 LD DE,4
  5FCF  D5            	 PUSH DE
  5FD0  CD3221        	 CALL XSAN
  5FD3  C1            	 POP BC
  5FD4  119D63        	 LD DE,THP
  5FD7  EDB0          	 LDIR
  5FD9  3E80          	 LD A,80H
  5FDB  32A463        	 LD (BF),A
  5FDE  3A6462        	 LD A,(EAP)
  5FE1  32A163        	 LD (NAP),A
  5FE4  3A6562        	 LD A,(EDP)
  5FE7  32A263        	 LD (NDP),A
  5FEA  3A9163        	 ld A,(flag+3bh)
  5FED  17            	 rla
  5FEE  D8            	 ret c
  5FEF  C3FA1B        	 JP BTMLP
  5FF2                	TNAMEB:
  5FF2  B2B1D8BD2020  	 DB "ｲｱﾘｽ  "
  5FF8  BCDBB7BC2020  	 DB "ｼﾛｷｼ  "
  5FFE  BEAFBAB3CFD9  	 DB "ｾｯｺｳﾏﾙ"
  6004  B8DBB7BC2020  	 DB "ｸﾛｷｼ  "
  600A  DBDADDBD2020  	 db "ﾛﾚﾝｽ  "
  6010  D7BDC4202020  	 db "ﾗｽﾄ   "
  6016                	TPDATB:
  6016  78046923      	 DB 120,4,105,35
  601A  5A044128      	 DB 90,4,65,40
  601E  C8079650      	 DB 200,7,150,80
  6022  960BB450      	 DB 150,0bh,180,80
  6026  FF0C96B4      	 db 255,0ch,150,180
  602A  FF10D2D2      	 db 255,10h,210,210
  602E                	EXGTB:
  602E  2C01B004      	 DW 300,1200
  6032  19004B00      	 DW 25,75
  6036  C4098813      	 DW 2500,5000
  603A  9001EE02      	 DW 400,750
  603E  88131027      	 DW 5000,10000
  6042  00000000      	 dw 0,0
                      	
                      	;------------------店屋---------------------
                      	
  6046                	MISE1:
  6046  12224281828500	 DB 12H,22H,42H,81H,82H,85H,0,0,0,0,0,0FH
  6052                	MISE2:
  6052  13818284850000	 DB 13H,81H,82H,84H,85H,0,0,0,0,0,0,0FH
  605E                	MISE3:
  605E  14244481828400	 DB 14H,24H,44H,81H,82H,84H,0,0,0,0,0,0FH
  606A                	MISE4:
  606A  82848586000000	 DB 82H,84H,85H,86H,0,0,0,0,0,0,0,0FH
                      	
                      	;--------------FLAGC--------------------
                      	
  6076                	FLAGC:
  6076  215663        	 LD HL,FLAG
  6079  5F            	 LD E,A
  607A  1600          	 LD D,0
  607C  19            	 ADD HL,DE
  607D  7E            	 LD A,(HL)
  607E  17            	 RLA
  607F  D0            	 RET NC
  6080  E1            	 POP HL
  6081  C31705        	 JP RETSAC
                      	
                      	;----------------ﾀｶﾗﾊﾞｺ-------------------
                      	
  6084                	TK1:;G
  6084  D5            	 PUSH DE
  6085  22AA60        	 LD (TKGE+1),HL
  6088  CDB960        	 CALL GASCN
  608B  D1            	 POP DE
  608C  1600          	 LD D,0	;E
  608E  3E80          	 LD A,80H
  6090  215663        	 LD HL,FLAG
  6093  19            	 ADD HL,DE
  6094  77            	 LD (HL),A
  6095  CD6C61        	 call tkabep	;12/9
  6098  21A335        	 LD HL,TAKARG	;12/2
  609B  CDC823        	 CALL OPNG2	;12/2
  609E  21C061        	 LD HL,IVENTM+72
  60A1  0E0C          	 LD C,12
  60A3  CD2F19        	 CALL MSO
  60A6  2A7662        	 LD HL,(G)
  60A9                	TKGE:;ｶｷｶｴｼﾞｬﾝﾌﾟ
  60A9  110000        	 LD DE,0000H
  60AC  B7            	 OR A
  60AD  19            	 ADD HL,DE
  60AE  3003          	 JR NC,GUP
  60B0  21FFFF        	 LD HL,0FFFFH
  60B3                	GUP:
  60B3  227662        	 LD (G),HL
  60B6  C3EA01        	 JP START
  60B9                	GASCN:
  60B9  CDD619        	 CALL ASCN
  60BC  21D119        	 LD HL,NMEMRY
  60BF  11C661        	 LD DE,IVENTM+78
  60C2  010500        	 LD BC,5
  60C5  EDB0          	 LDIR
  60C7  C9            	 RET
  60C8                	DOBU:
  60C8  DD215B35      	 LD IX,OBUG
  60CC  1817          	 JR TKST
  60CE                	DTATE:
  60CE  DD21CB34      	 LD IX,SEITG
  60D2  1811          	 JR TKST
  60D4                	DYORO:
  60D4  DD211335      	 LD IX,REFLEG
  60D8  180B          	 JR TKST
  60DA                	DTURU:
  60DA  DD218334      	 LD IX,EXCALG
  60DE  1805          	 JR TKST
  60E0                	TK2:;ITEM
  60E0  00            	 NOP
  60E1  DD21A335      	 LD IX,TAKARG
  60E5                	TKST:
  60E5  DD22F460      	 LD (TK2G+1),IX
  60E9  D5            	 PUSH DE
  60EA  E5            	 PUSH HL
  60EB  C5            	 PUSH BC
  60EC  F5            	 PUSH AF
  60ED  21C828        	 LD HL,GRD2
  60F0  CDDD25        	 CALL OPNG
  60F3                	TK2G:
  60F3  210000        	 LD HL,0
  60F6  CDC823        	 CALL OPNG2	;12/2
  60F9  CD6C61        	 call tkabep	;12/9
  60FC  F1            	 POP AF
  60FD  C1            	 POP BC
  60FE  E1            	 POP HL
  60FF  D1            	 POP DE
                      	
  6100  D5            	 PUSH DE
  6101  CD4E17        	 CALL ITEMAD
  6104  3004          	 JR NC,TK2L
  6106  E1            	 POP HL
  6107  C3EA01        	 JP START
  610A                	TK2L:
  610A  E1            	 POP HL
  610B  3E80          	 LD A,80H
  610D  77            	 LD (HL),A
  610E  C3EA01        	 JP START
  6111                	TAKARP:
  6111  21BA61        	 LD HL,IVENTM+66
  6114  0E06          	 LD C,6
  6116  CD2F19        	 CALL MSO
  6119  FE31          	 CP 31H
  611B  C8            	 RET Z
  611C  E1            	 POP HL
  611D  C33B06        	 JP MALP+3
  6120                	TK3:;BOOKS	DE=FLAG+X	HL=BOOK NAME	A=BOOK NO.(BIT) 1,2,4,8
  6120  00            	 NOP
  6121  EB            	 EX DE,HL
  6122  3680          	 LD (HL),80H
  6124  219563        	 LD HL,BOOKF
  6127  46            	 LD B,(HL)
  6128  C5            	 PUSH BC	;
  6129  B6            	 OR (HL)
  612A  77            	 LD (HL),A
  612B  EB            	 EX DE,HL
  612C  119617        	 LD DE,ITEMAM
  612F  010800        	 LD BC,8
  6132  EDB0          	 LDIR
  6134  21C828        	 LD HL,GRD2	;12/13
  6137  CDDD25        	 CALL OPNG	;12/13
  613A  213336        	 LD HL,BOOKG	;12/2
  613D  CDC823        	 CALL OPNG2	;12/2
  6140  CD6C61        	 call tkabep	;12/9
  6143  219617        	 LD HL,ITEMAM
  6146  0E18          	 LD C,24
  6148  CD4B19        	 CALL MSO2
  614B  F1            	 POP AF		;
  614C  B7            	 OR A
  614D  2008          	 JR NZ,TK3ED
  614F  215A61        	 LD HL,TK3M
  6152  0E12          	 LD C,18
  6154  CD2F19        	 CALL MSO
  6157                	TK3ED:
  6157  C3EA01        	 JP START
  615A                	TK3M:
  615A  BAC9CEDDCAA452	 DB "ｺﾉﾎﾝﾊ､","Rｷｰｦ､ｵ","ｽﾄﾖﾒﾏｽ"
  616C                	tkabep:
  616C  E5            	 push HL
  616D  D5            	 push DE
  616E  C5            	 push BC
  616F  F5            	 push AF
  6170  CD4924        	 call BEPISC
  6173  F1            	 pop AF
  6174  C1            	 pop BC
  6175  D1            	 pop DE
  6176  E1            	 pop HL
  6177  C9            	 ret
                      	
                      	;-----------ｲﾍﾞﾝﾄﾒｯｾｰｼﾞ-------------
                      	
  6178                	IVENTM:
  6178  3ABEDEB3BD20  	 DB ":ｾﾞｳｽ "
  617E  BCDDC3DEDD20  	 DB "ｼﾝﾃﾞﾝ ";+6
  6184  B2D8B8DEC13A  	 DB "ｲﾘｸﾞﾁ:";+12
  618A  B9DEB9DE2121  	 DB "ｹﾞｹﾞ!!";+18
  6190  DCB0CCDFC0DE  	 DB "ﾜｰﾌﾟﾀﾞ";+24
  6196  B6B2C0DEDD20  	 DB "ｶｲﾀﾞﾝ ";+30
  619C  B6DEB1D92020  	 DB "ｶﾞｱﾙ  ";+36
  61A2  C9CEDED93F20  	 DB "ﾉﾎﾞﾙ? ";+42
  61A8  B5D8D93F2020  	 DB "ｵﾘﾙ?  ";+48
  61AE  DCA721202020  	 DB "ﾜｧ!   ";+54
  61B4  B5C4BCB1C521  	 DB "ｵﾄｼｱﾅ!";+60
  61BA                	TAKMS:
  61BA  C0B6D7CADEBA  	 DB "ﾀｶﾗﾊﾞｺ";+66
  61C0  C5B6D0CA2020  	 DB "ﾅｶﾐﾊ  ";+72
  61C6  202020202047  	 DB "     G";+78
  61CC  3AB6B7DEC920  	 DB ":ｶｷﾞﾉ ";+84
  61D2  B1D8B6CA2020  	 DB "ｱﾘｶﾊ  ";+90
  61D8  CDD4C9C5B6C9  	 DB "ﾍﾔﾉﾅｶﾉ";+96
  61DE  C4DEBAB6C63A  	 DB "ﾄﾞｺｶﾆ:";+102
  61E4  3ACBB6DEBC20  	 DB ":ﾋｶﾞｼ ";+108
  61EA  C0DBBDC9D0BE  	 DB "ﾀﾛｽﾉﾐｾ";+114
  61F0  D0C5D0202020  	 DB "ﾐﾅﾐ   ";+120
  61F6  B9B1D9B0D13A  	 DB "ｹｱﾙｰﾑ:";+126
  61FC  C5DDBCDED620  	 DB "ﾅﾝｼﾞﾖ ";+132
  6202  C1B6D7C92020  	 DB "ﾁｶﾗﾉ  ";+138
  6208  CBB6D820A620  	 DB "ﾋｶﾘ ｦ ";+144
  620E  B6B6B9DED620  	 DB "ｶｶｹﾞﾖ ";+150
  6214  D5B620B6DE20  	 DB "ﾕｶ ｶﾞ ";+156
  621A  B6AFC3C62020  	 DB "ｶｯﾃﾆ  ";+162
  6220  B3BADEB82120  	 DB "ｳｺﾞｸ! ";+168
  6226  BDB2AFC12020  	 DB "ｽｲｯﾁ  ";+174
  622C  B6D7C0DEB6DE  	 DB "ｶﾗﾀﾞｶﾞ";+180
  6232  B1C2B2212120  	 DB "ｱﾂｲ!! ";+186
                      	
                      	;-------PRISET DATA---------
                      	
  6238                	PLV:
  6238  01            	 DB 1;PLV:
  6239  19            	 DB 25	;2 25	;PHP:
  623A  19            	 DB 25	;2 25	; DB 25;PMHP:
  623B  07            	 DB 7	;22 7	; DB 7;PMP:
  623C  07            	 DB 7	;22 7	; DB 7;PMMP:
  623D  05            	 DB 5		;225;PAP:
  623E  05            	 DB 5		;225;PDP:
  623F  11            	 DB 11H		;PES:
  6240  21            	 DB 21H		;PET:
  6241  41            	 DB 41H		;PEA:
  6242  14            	 DB 20		;215;PEAP:
  6243  14            	 DB 20		;215;PEDP:
  6244  00            	 DB 0;PST:
  6245  00000000000000	 DB 0,0,0,0,0,0,0,0,0,0,0	;0,0,0,0,0,0,0,0,0,0,0;PITEM:0,0,0,0,0,0,0,0,0,0,0
  6250  0F            	 DB 0FH;
  6251  01            	 DB 1		;0dh;1;PFL:
  6252  00            	 DB 0		;PX:
  6253  00            	 DB 0		;PY:
  6254  C800          	 DB 200,0	;0ffh,0ffh;200,0;PG:
  6256  0000          	 DB 0,0		;0ffh,0ffh;0,0;PEXP:
  6258  01            	 DB 1		;7fh;1H	; DB 1;PMG 0~6BIT
  6259  01            	 DB 1		;PURDL:
                      	
                      	;----------ｽﾃｰﾀｽ ﾃﾞｰﾀ    -------------
                      	
  625A  00            	LV:DB 0
  625B  00            	HP:DB 0
  625C  00            	MHP:DB 0
  625D  00            	MP:DB 0
  625E  00            	MMP:DB 0
  625F  00            	AP:DB 0
  6260  00            	DP:DB 0
  6261  00            	ES:DB 0
  6262  00            	ET:DB 0
  6263  00            	EA:DB 0
  6264  00            	EAP:DB 0
  6265  00            	EDP:DB 0
  6266  00            	ST:DB 0
  6267  00000000000000	ITEM:DB 0,0,0,0,0,0,0,0,0,0,0,0
  6273  00            	FL:DB 0
  6274  00            	X:DB 0
  6275  00            	Y:DB 0
  6276  0000          	G:DB 0,0
  6278  0000          	EXP:DB 0,0
  627A  00            	MG:DB 0
  627B  00            	URDL:DB 0	;1~4
  627C  54            	 DB 54H
  627D                	SAVE:
  627D  00000000000000	 DB 0,0,0,0,0,0,0,0,0,0,0,0,0,0,0,0,0,0,0,0,0,0,0,0,0,0,0,0,0,0,0,0,0
  629E                	FSAVE:
  629E  00000000000000	 DB 0,0,0,0,0,0,0,0,0,0,0,0,0,0,0,0
  62AE  00000000000000	 DB 0,0,0,0,0,0,0,0,0,0,0,0,0,0,0,0
  62BE  00000000000000	 DB 0,0,0,0,0,0,0,0,0,0,0,0,0,0,0,0
  62CE  00000000000000	 DB 0,0,0,0,0,0,0,0,0,0,0,0,0,0,0,0
  62DE                	MSAVE:
  62DE  00000000000000	 DB 0,0,0,0,0,0,0,0,0,0,0,0,0,0,0,0
  62EE  00000000000000	 DB 0,0,0,0,0,0,0,0,0,0,0,0,0,0,0,0
  62FE  00000000000000	 DB 0,0,0,0,0,0,0,0,0,0,0,0,0,0,0,0
  630E  00000000000000	 DB 0,0,0,0,0,0,0,0,0,0,0,0,0,0,0,0
  631E  00000000000000	 DB 0,0,0,0,0,0,0,0,0,0,0,0,0,0,0,0
  632E  00000000000000	 DB 0,0,0,0,0,0,0,0,0,0,0,0,0,0,0,0
  633E  00000000000000	 DB 0,0,0,0,0,0,0,0,0,0,0,0,0,0,0,0
  634E  00000000000000	 DB 0,0,0,0,0,0,0,0
                      	 
                      	;--------ﾌﾗｸﾞﾃﾞｰﾀ------------
                      	 
  6356                	FLAG:
  6356  00000000000000	 DB 0,0,0,0,0,0,0,0,0,0,0,0,0,0,0,0
                      	;IV8,IV13,IV11,IV14,IV14,IV16,IV18,IV1D,IV1E,IV1F,IV1A,IV19,IV23,IV25,IV18,TV6
  6366  00000000000000	 DB 0,0,0,0,0,0,0,0,0,0,0,0,0,0,0,0
                      	;IV26,IV28,IV2A,IV2B,IV2D,IV2E,IV33,IV34,IV36,IV39,IV3A,IV3B,IV3C,IV3D,IV38,IV3F
  6376  00000000000000	 DB 0,0,0,0,0,0,0,0,0,0,0,0,0,0,0,0
                      	;IV41,IV42,IV44,IV46,IV50,IV51,IV52,IV53,IT6,IV56,TVC,IV47,IV49,IV4A,IV4B,IV4E
  6386  00000000000000	 DB 0,0,0,0,0,0,0,0,0,0,0,0,0,0
                      	;IV5A,iv57,IV5C,IV5D,IV5E,IV5F,iv60,iv61,iv62,iv63,iv64,iv65,ai10,
  6394  00            	DZF:DB 0
  6395  00            	BOOKF:DB 0
                      	
                      	;--------一時保存データ-------------
                      	
  6396  00            	TNO:DB 0
  6397  000000000000  	TNNAME:DB 0,0,0,0,0,0
  639D  00            	THP:DB 0
  639E  00            	TAI:DB 0
  639F  00            	TAP:DB 0
  63A0  00            	TDP:DB 0
  63A1  00            	NAP:DB 0
  63A2  00            	NDP:DB 0
  63A3  00            	STF:DB 0
  63A4  00            	BF:DB 0
                      	
                      	;*********************ENDING**************************
                      	
  63A5                	ENDING:
  63A5  CD2A25        	 call GRPUT2
  63A8  21FB66        	 ld HL,edg1
  63AB  CDDD25        	 call OPNG
  63AE  CD3E17        	 call tim255
  63B1  218265        	 ld HL,ENDINM
  63B4  0602          	 ld B,2
  63B6  CDC719        	 call msobr
  63B9  0603          	 ld B,3
  63BB  211967        	 ld HL,edg1+30
  63BE                	edl1:
  63BE  C5            	 push BC
  63BF  E5            	 push HL
  63C0  CD2A25        	 call GRPUT2
  63C3  E1            	 pop HL
  63C4  E5            	 push HL
  63C5  CDDD25        	 call OPNG
  63C8  CD3E17        	 call tim255
  63CB  E1            	 pop HL
  63CC  111E00        	 ld DE,30
  63CF  19            	 add HL,DE
  63D0  C1            	 pop BC
  63D1  10EB          	 djnz edl1
  63D3  21A265        	 ld HL,ENDINM+30+2
  63D6  0603          	 ld B,3
  63D8  CDC719        	 call msobr
                      	
  63DB  21F425        	 ld HL,OPG1
  63DE  CDDD25        	 call OPNG
  63E1  21E765        	 ld HL,ENDINM+30+2+66+3
  63E4  0603          	 ld B,3
  63E6  CDC719        	 call msobr
                      	
  63E9  21CD67        	 ld HL,edg3
  63EC  CDDD25        	 call OPNG
  63EF  212666        	 ld HL,ENDINM+30+2+66+3+60+3
  63F2  0603          	 ld B,3
  63F4  CDC719        	 call msobr
                      	
  63F7  CDA56B        	 call timx3
                      	 
  63FA                	ENDLOL:
                      	
  63FA  21C828        	 ld HL,GRD2
  63FD  0E18          	 ld C,24
  63FF  CDB56B        	 call msoptm
                      	
  6402  216B66        	 ld HL,endlom
  6405  0E0C          	 ld C,12
  6407  CDB56B        	 call msoptm
                      	
  640A  217766        	 ld HL,endlom+12
  640D  0E06          	 ld C,6
  640F  CD3319        	 call msop
  6412  CDAB6B        	 call timx3+6
  6415  217766        	 ld HL,endlom+12
  6418  0E0C          	 ld C,12
  641A  CDB56B        	 call msoptm
                      	
  641D  218366        	 ld HL,endlom+24
  6420  0E06          	 ld C,6
  6422  CD3319        	 call msop
  6425  CDAB6B        	 call timx3+6
  6428  218366        	 ld HL,endlom+24
  642B  0E0C          	 ld C,12
  642D  CDB56B        	 call msoptm
                      	
  6430  218F66        	 ld HL,endlom+36
  6433  0E0C          	 ld C,12
  6435  CD3319        	 call msop
  6438  CDAB6B        	 call timx3+6
  643B  218F66        	 ld HL,endlom+36
  643E  0E12          	 ld C,18
  6440  CDB56B        	 call msoptm
                      	
  6443  21A166        	 ld HL,endlom+54
  6446  0E0C          	 ld c,12
  6448  CDB56B        	 call msoptm
                      	
  644B                	kyarap:
  644B  AF            	 xor A
  644C  32E36B        	 ld (kyarmp+1),A
  644F  21AD66        	 ld HL,kyaram
  6452  22E66B        	 ld (kyarmp+4),HL
                      	
  6455  21A32F        	 ld HL,MISEG	;ﾀﾛｽ
  6458  CDCC6B        	 call opng3
  645B  210B31        	 ld HL,kazig	;ｷﾞﾙ
  645E  CDCC6B        	 call opng3
  6461  215B35        	 ld HL,obug	;ｵｰﾌﾞ
  6464  CDC76B        	 call opng4
  6467  21EB35        	 ld HL,takrfg	;ﾀｶﾗﾊﾞｺ(封)
  646A  CDC76B        	 call opng4
  646D  CD2A25        	 call grput2
  6470  21A335        	 ld HL,takarg	;ﾀｶﾗﾊﾞｺ
  6473  CDC823        	 call opng2
  6476  CDA56B        	 call timx3
  6479  218331        	 ld HL,megamg	;ﾒｶﾞﾐｿﾞｳ
  647C  CDCC6B        	 call opng3
  647F  213336        	 ld HL,bookg	;ﾎﾝ
  6482  CDC76B        	 call opng4
  6485  218334        	 ld HL,excalg	;ｾｲﾅﾙｹﾝ
  6488  CDC76B        	 call opng4
  648B  21CB34        	 ld HL,seitg	;ｾｲﾅﾙﾀﾃ
  648E  CDC76B        	 call opng4
  6491  211335        	 ld HL,refleg	;ｾｲﾉﾖﾛｲ
  6494  CDC76B        	 call opng4
  6497  217332        	 ld HL,ridng	;ｱｼｭﾗｽ
  649A  CDC76B        	 call opng4
  649D  21BB32        	 ld HL,hartg	;ｱﾅﾝ
  64A0  CDC76B        	 call opng4
  64A3  210333        	 ld HL,kokorg	;ﾏﾃｨﾅ
  64A6  CDC76B        	 call opng4
  64A9  21FB31        	 ld HL,daig	;ﾀﾞｲﾀﾛｽ
  64AC  CDCC6B        	 call opng3
                      	
  64AF  AF            	 xor A
  64B0  32E36B        	 ld (kyarmp+1),A
  64B3  217E20        	 ld HL,tname
  64B6  22E66B        	 ld (kyarmp+4),HL
                      	
  64B9  0612          	 ld B,18
  64BB  21C538        	 ld HL,tgr
  64BE                	endtgr:;ｽｹﾙﾄﾝ~ﾙｼﾌﾙ
  64BE  C5            	 push BC
  64BF  E5            	 push HL
  64C0  CDC76B        	 call opng4
  64C3  E1            	 pop HL
  64C4  114800        	 ld DE,72
  64C7  19            	 add HL,DE
  64C8  C1            	 pop BC
  64C9  10F3          	 djnz endtgr
                      	
  64CB  AF            	 xor A
  64CC  32E36B        	 ld (kyarmp+1),A
  64CF  21F25F        	 ld HL,tnameb
  64D2  22E66B        	 ld (kyarmp+4),HL
                      	
  64D5  0605          	 ld B,5
  64D7  21D53D        	 ld HL,tgrb
  64DA                	endtg2:;ｲｱﾘｽ~ﾗｽﾄ
  64DA  C5            	 push BC
  64DB  E5            	 push HL
  64DC  CDCC6B        	 call opng3
  64DF  E1            	 pop HL
  64E0  117800        	 ld DE,120
  64E3  19            	 add HL,DE
  64E4  C1            	 pop BC
  64E5  10F3          	 djnz endtg2
                      	
  64E7  3E01          	 ld A,1
  64E9  D367          	 out (67h),A
  64EB  CD2A25        	 call grput2
  64EE  21C333        	 ld HL,lastg
  64F1  CDC823        	 call opng2
  64F4  211060        	 ld HL,tnameb+6*5
  64F7  0E03          	 ld C,3
  64F9  CD3319        	 call msop
  64FC  CDA56B        	 call timx3
  64FF  212D40        	 ld HL,tgrb+120*5
  6502  CDDD25        	 call opng
  6505  CDA56B        	 call timx3
                      	
  6508  3E01          	 ld A,1
  650A  D367          	 out (67h),A
  650C  21E426        	 ld HL,opg3	;ｱﾚｽ
  650F  CDDD25        	 call opng
  6512  218265        	 ld HL,endinm
  6515  0E03          	 ld C,3
  6517  CD3319        	 call msop
  651A  CDA56B        	 call timx3
                      	
  651D  0606          	 ld B,6
  651F  CD1C1A        	 call grd
                      	
  6522  216865        	 ld HL,theend+7
  6525  110302        	 ld DE,0203h
  6528  0609          	 ld B,9
  652A  CDF1BF        	 call 0bff1h
                      	
  652D  217165        	 ld HL,theend+7+9
  6530  110603        	 ld DE,0306h
  6533  0611          	 ld B,17
  6535  CDF1BF        	 call 0bff1h
  6538  CDA56B        	 call timx3
                      	
  653B  214568        	 ld HL,edg4
  653E  115829        	 ld DE,groe1
  6541  016003        	 ld BC,144*6
  6544  EDB0          	 ldir
  6546  CD6B1A        	 call gro2
                      	
  6549  AF            	 xor A
  654A  D367          	 out (67h),A
  654C  CDA56B        	 call timx3
  654F  216165        	 ld HL,theend
  6552  110105        	 ld DE,0501h
  6555  0607          	 ld B,7
  6557  CDF1BF        	 call 0bff1h
  655A  CDA56B        	 call timx3
  655D  CDFDBC        	 call 48381
  6560  C9            	 ret
  6561                	theend:
  6561  54686520456E64	 db "The End"
  6568  5468616E6B2079	 db "Thank you","for your playing!"
  6582                	ENDINM:
  6582  B1DABDB6DEBFC4	 db "ｱﾚｽｶﾞｿ","ﾄﾆﾃﾞﾙﾄ",0f9h
  658F  CBC4CBDEC4C9B6	 db "ﾋﾄﾋﾞﾄﾉ","ｶﾝｾｲｶﾞ","ｷｺｴﾃｷﾀ",0f9h
                      	
  65A2  CBC4CBDEC4CAD4	 db "ﾋﾄﾋﾞﾄﾊ","ﾔｻｼｸ  ","ｱﾚｽｦ  ","ﾃﾞﾑｶｴ ",0f9h
  65BB  D0DDC5C3DE20D6	 db "ﾐﾝﾅﾃﾞ ","ﾖﾛｺﾋﾞｦ","ﾜｶﾁｱｯﾀ",0f9h
  65CE  CCC0C0CBDE20CD	 db "ﾌﾀﾀﾋﾞ ","ﾍｲﾜｦ  ","ﾄﾘﾓﾄﾞｼ","ﾀﾉﾀﾞ･･",0f9h
                      	
  65E7  CAB3DADDCA20CC	 db "ﾊｳﾚﾝﾊ ","ﾌﾀﾀﾋﾞ ","ｻｶｴ､  ",0f9h
  65FA  D6D8D6B22020B8	 db "ﾖﾘﾖｲ  ","ｸﾆﾆﾅｯﾃ","ｲｯﾀ･･･",0f9h
  660D  B1DABDCAB4B2D5	 db "ｱﾚｽﾊｴｲ","ﾕｳﾄｼﾃ ","ﾃﾞﾝｾﾂﾄ","ﾅｯﾀ   ",0f9h
                      	
  6626  BCB6BCB1DABDCA	 db "ｼｶｼｱﾚｽ","ﾊﾌﾞｷﾄ ","ﾎﾞｳｸﾞｦ","ﾓｯﾃ､  ",0f9h
  663F  B1D7C0C5D920C0	 db "ｱﾗﾀﾅﾙ ","ﾀﾋﾞｴﾑｶ","ｯﾃｲｯﾀ ",0f9h
  6652  BBD7C5D92020CE	 db "ｻﾗﾅﾙ  ","ﾎﾞｳｹﾝｦ","ﾓﾄﾒﾃ･･","･･････",0f9h
  666B                	endlom:
  666B  CAB3DADD2020  	 db "ﾊｳﾚﾝ  "
  6671  CEDEB3B9DDB7  	 db "ﾎﾞｳｹﾝｷ"
                      	
  6677  B9DEDDBBB820  	 db "ｹﾞﾝｻｸ "
  667D  686F72696520  	 db "horie "
                      	
  6683  BEB2BBB82020  	 db "ｾｲｻｸ  "
  6689  747562617361  	 db "tubasa"
                      	
  668F  B7ACD7B8C0B0  	 db "ｷｬﾗｸﾀｰ"
  6695  C3DEBBDEB2DD  	 db "ﾃﾞｻﾞｲﾝ"
  669B  742E68202020  	 db "t.h   "
                      	
  66A1  3AB7ACD7B8C0  	 db ":ｷｬﾗｸﾀ"
  66A7  BCAEB3B6B23A  	 db "ｼｮｳｶｲ:"
  66AD                	kyaram:
  66AD  C0DBBD202020  	 db "ﾀﾛｽ   "
  66B3  B7DED9202020  	 db "ｷﾞﾙ   "
  66B9  B5B0CCDE2020  	 db "ｵｰﾌﾞ  "
  66BF  C0B6D7CADEBA  	 db "ﾀｶﾗﾊﾞｺ"
  66C5  D2B6DED02020  	 db "ﾒｶﾞﾐ  "
  66CB  CEDD20202020  	 db "ﾎﾝ    "
  66D1  BEB2C5D9B9DD  	 db "ｾｲﾅﾙｹﾝ"
  66D7  BEB2C5D9C0C3  	 db "ｾｲﾅﾙﾀﾃ"
  66DD  BEB2C9D6DBB2  	 db "ｾｲﾉﾖﾛｲ"
  66E3  B1BCADD7BD20  	 db "ｱｼｭﾗｽ "
  66E9  B1C5DD202020  	 db "ｱﾅﾝ   "
  66EF  CFC3A8C52020  	 db "ﾏﾃｨﾅ  "
  66F5  C0DEB2C0DBBD  	 db "ﾀﾞｲﾀﾛｽ"
                      	
  66FB                	edg1:
  66FB  2BCDEDEBBB1515	 db 2Bh,0CDh,0EDh,0EBh,0BBh,15h,15h,1Bh,1Bh,15h,95h,9Bh,9Bh,35h,0D5h
  670A  9B9B55959B1B15	 db 9Bh,9Bh,55h,95h,9Bh,1Bh,15h,15h,1Bh,1Bh,0BDh,0EDh,0EBh,8Bh,4Dh
  6719  49B6FF0001FF00	 db 49h,0B6h,0FFh,00,01,0FFh,00,60h,0D0h,50h,52h,0D3h,0AEh,6Bh,0B1h
  6728  B16BAFDA5A50D0	 db 0B1h,6Bh,0AFh,0DAh,5Ah,50h,0D0h,60h,00,0FFh,01,00,0FFh,0EDh,12h
  6737  926DFF0003FF00	 db 92h,6Dh,0FFh,00,03,0FFh,00,00,0CFh,0B4h,9Fh,0C8h,0E8h,0FFh,0AAh
  6746  DAFF68C89FB44F	 db 0DAh,0FFh,68h,0C8h,9Fh,0B4h,4Fh,00,00,0FFh,03,00,0FFh,0B6h,49h
  6755  44005FB058AF54	 db 44H,0BB,5Fh,0B0h,58h,0AFh,54h,0ACh,54h,0BCh,57h,0BEh,57h,0ADh,54h
  6764  AC154F9E375C3C	 db 0ACh,15h,4Fh,9Eh,37h,5Ch,3Ch,54h,2Ch,47h,8Ch,18h,3Fh,4Bh,0B4h
  6773                	edg2:
  6773  279555A5450505	 db 27h,95h,55h,0A5h,45h,05,05,05,85h,0C5h,05h,75h,8Fh,0FDh,8Fh,0FDh
  6783  8F750525E5D5F5	 db 8Fh,75h,05h,25h,0E5h,0D5h,0F5h,0F5h,0F5h,05,05,65h,0EDh,3Fh
  6791  117396CDA0AE17	 db 11h,73h,96h,0CDh,0A0h,0AEh,17h,07,1Fh,0AEh,0A2h,0C1h,06,7Eh,52h
  67A0  7E0601F2ACDBA7	 db 7Eh,06h,01h,0F2h,0ACh,0DBh,0A7h,0DBh,0AFh,0D7h,0A8h,0D8h,38h,7Eh,0C9h
  67AF  03030103F41FC8	 db 03,03,01,03,0F4h,1Fh,0C8h,28h,0C8h,1Fh,0F4h,03,2Bh,0F3h,69h,73h
  67BF  FB03C1662F1717	 db 0FBh,03,0C1h,66h,2Fh,17h,17h,2Fh,66h,0C3h,02,00,01,39h
  67CD                	edg3:
  67CD  FFFFFFFFFF7F3F	 db 0FFh,0FFh,0FFh,0FFh,0FFh,7Fh,3Fh,9Fh,0DFh,0CFh,0EFh,0EFh,0EFh,0EFh,0CFh
  67DC  DF9FBF3F7F7FFF	 db 0DFh,9Fh,0BFh,3Fh,7Fh,7Fh,0FFh,0C7h,83h,39h,7Dh,7Fh,0FFh,0FFh,0FFh
  67EB  EFE3F9FD3C8EAF	 db 0EFh,0E3h,0F9h,0FDh,3Ch,8Eh,0AFh,2Fh,0C1h,4Dh,75h,35h,89h,2Bh,37h,17h
  67FB  09C5754D54D99B	 db 09h,0C5h,75h,4Dh,54h,0D9h,9Bh,0B3h,27h,0EFh,0CFh,09Fh,7Fh,7Fh
  6809  FFFFFF83B8ABB2	 db 0FFh,0FFh,0FFh,83h,0B8h,0ABh,0B2h,0ADh,01Fh,0FFh,0CCh,24h,73h,99h,00h
  6818  8479E284F613A4	 db 84h,79h,0E2h,84h,0F6h,13h,0A4h,48h,0F3h,0Ch,0FFh,0FFh,0FFh,0FFh,0FFh
  6827  FFFFFFFFFF3FDF	 db 0FFh,0FFh,0FFh,0FFh,0FFh,3Fh,0DFh,6Fh,56h,54h,51h,56h,5Eh,77h,0D9h
  6836  E8775C53535457	 db 0E8h,77h,5Ch,53h,53h,54h,57h,6Fh,0DEh,3Eh,0FFh,0FFh,0FFh,0FFh,0FFh
  6845                	edg4:
  6845  00000000000000	 db 00,00,00,00,00,00,00,80h,00,00,00,00,00,00,10h,30h,60h,0E0h,0F0h,0F8h
  6859  380000C070D0D0	 db 38h,00,00,0C0h,70h,0D0h,0D0h,70h,0F0h,0D0h,70h,0F0h,0F0h,50h,0D0h,0D0h
  6869  70C00000808000	 db 70h,0C0h,00,00,80h,80h,00,00,00,00,00,40h,0C0h,0C0h,0C0h,0C0h,80h,80h
  687B  00C0C0C0C08000	 db 00,0C0h,0C0h,0C0h,0C0h,80h,00,00,00,00,00,00,0C0h,40h,0FCh,1Ch,0CCh,0CCh
  688D  0C8CFC40C00000	 db 0Ch,8Ch,0FCh,40h,0C0h,00,00,00,00,00,0C0h,80h,80h,00,00,00,00,00,00,00
  68A1  00C04040F89C9C	 db 00,0C0h,40h,40h,0F8h,9Ch,9Ch,3Ch,1Ch,0F8h,40h,0C0h,00,00,00,0C0h,0A0h
  68B2  E0B0D8685830E0	 db 0E0h,0B0h,0D8h,68h,58h,30h,0E0h,80h,80h,00h,00,00,80h,40h,0FCh,9Ch,9Ch
  68C3  FC408000000078	 db 0FCh,40h,80h,00,00,00,78h,10h,1Eh,0B0h,41h,06,0DCh,34h,66h,0CCh,98h,50h
                      	
  68D5  000040C0C0C1C6	 db 00,00,40h,0C0h,0C0h,0C1h,0C6h,9Eh,7Fh,8Fh,8Eh,0C1h,4Bh,0FFh,0CFh,37h,0DFh
  68E6  B4F7FC9CBFD59D	 db 0B4h,0F7h,0FCh,9Ch,0BFh,0D5h,9Dh,97h,0DDh,0D5h,0B7h,0FDh,0FDh,0F7h,0F5h
  68F5  BDD7959DD7B59D	 db 0BDh,0D7h,95h,9Dh,0D7h,0B5h,9Dh,0FFh,0FDh,0D7h,0B7h,77h,9Fh,0EFh,0BEh,0FEh
  6905  8B8F3F87F7FDF9	 db 8Bh,8Fh,3Fh,87h,0F7h,0FDh,0F9h,0E3h,0E7h,0E7h,1Fh,0C7h,0C2h,80h,0C0h,80h,00
  6916  000303830F03E1	 db 00,03,03,83h,0Fh,03h,0E1h,1Bh,03,03,83h,0C3h,0C7h,0DFh,0FEh,86h,80h,0FFh,9Bh
  6929  8383FE00000000	 db 83h,83h,0FEh,00,00,00,00,00,0E0h,33h,63h,0C7h,05,03,15h,0B1h,05,0Dh,0F7h,03
  693D  00FC322F303F30	 db 00,0FCh,32h,2Fh,30h,3Fh,30h,70h,0EEh,0DEh,3Ch,0AFh,06Ch,0FFh,80h,0C0h,0A0h
  694E  37EA0EFAACDC5A	 db 37h,0EAh,0Eh,0FAh,0ACh,0DCh,5Ah,77h,30h,00,00,0C0h,00,00,07,01,01,0Eh,1Bh,34h,29h,0E9h,7Fh
                      	
  6965  00A0C3C73F07E3	 db 00,0A0h,0C3h,0C7h,3Fh,07,0E3h,7Bh,0D6h,0ABh,55h,0AAh,55h,0BEh,77h,0A3h,6Ah,0A0h
  6977  62A862A060A268	 db 62h,0A8h,62h,0A0h,60h,0A2h,68h,0A0h,22h,0A8h,7Ah,0BAh,68h,22h,60h,0A0h,06Ah,0A0h
  6989  62A068A260AB72	 db 62h,0A0h,68h,0A2h,60h,0ABh,72h,0A3h,7Ch,0AFh,55h,0AAh,0D5h,0EAh,75h,0FFh,21h,8Fh,0F3h,0FFh
  699D  FFFFFB1839FF7B	 db 0FFh,0FFh,0FBh,18h,39h,0FFh,7Bh,53h,00,00,00,00,0CFh,00,0C0h,01,00,00,38h,79h,0F9h
  69B2  35FF1D3D7B3303	 db 35h,0FFh,1Dh,3Dh,7Bh,33h,03h,03h,03,0C3h,0Bh,0C0h,00,04,06,07,06,06,07,06,03,40h,13h,9Ch
  69CA  600F0000F9C760	 db 60h,0Fh,00,00,0F9h,0C7h,60h,00,4Fh,28h,80h,0EEh,43h,76h,0Fh,1Eh,0F9h,87h,0FFh,14h,80h
  69DF  FF0457FC807C0B	 db 0FFh,04,57h,0FCh,80h,7Ch,0Bh,7Eh,80h,7Fh,02h,0FFh,00,02,0C7h,0C7h,0DFh,0C6h,00,01,0C1h,7Ah
                      	
  69F5  00804F337C4300	 db 00,80h,4Fh,33h,7Ch,43h,00h,10h,0Ch,0C4h,0B1h,4Dh,73h,02h,03,0CEh,13h,02,65h,06,35h
  6A0A  0605863584FD56	 db 06,05,86h,35h,84h,0FDh,56h,54h,56h,54h,0FEh,35h,26h,0C5h,86h,05,26h,0Dh,0D6h,05,06
  6A1F  45E21B2203017E	 db 45h,0E2h,1Bh,22h,03,01,7Eh,11h,0A8h,0E9h,7Eh,30h,03,1Fh,05h,3Dh,0FFh,0Fh,07,05,00,00
  6A35  00008040520401	 db 00,00,80h,40h,52h,04h,01,00,0Ch,10h,10h,98h,80h,00,01,80h,84h,18h,08h,00,00,60h,26h
  6A4C  222022020202A0	 db 22h,20h,22h,02h,02,02,0A0h,28h,89h,09h,20h,26h,46h,05h,88h,08h,0D0h,0A2h,0A3h,0A2h,0C2h
  6A61  020301000000F8	 db 02,03,01,00,00,00,0F8h,28h,0A7h,0A0h,0A0h,0A2h,0F8h,07,30h,72h,70h,37h,00,0F0h,02,0A0h,0A3h
  6A78  62E6FF00000000	 db 62h,0E6h,0FFh,00,00,00,00,07,81h,0E0h,1Eh,0F3h,00
                      	
  6A85  90919191938282	 db 90h,91h,91h,91h,93h,82h,82h,14h,17h,15h,14h,24h,24h,24h,29h,28h,48h,0Fh,08h,0Bh,48h,48h
  6A9B  4A090E083F6D0D	 db 4Ah,09h,0Eh,08h,3Fh,6Dh,0Dh,0Dh,0Dh,0Fh,1Ch,08h,48h,49h,48h,48h,44h,85h,84h,04h,04h,86h
  6AB1  8282C203010100	 db 82h,82h,0C2h,03,01,01,00,00,40h,40h,40h,40h,40h,20h,30h,90h,08h,0Ch,00h,00,11h,09h,01
  6AC8  0446C2DAFAF360	 db 04,46h,0C2h,0DAh,0FAh,0F3h,60h,78h,30h,00,00,00,80h,0F0h,0E8h,82h,10h,42h,08h,00,00,0F0h
  6ADE  5884AEB9BDBD91	 db 58h,84h,0AEh,0B9h,0BDh,0BDh,091h,0BFh,0D8h,0ECh,08Ch,00Ch,03Ch,04Ah,0D7h,0B4h,84h,0ECh
  6AF0  87FE0404444850	 db 87h,0FEh,04,04h,44h,48h,50h,57h,46h,66h,26h,46h,44h,47h,04h,84h,07h,05h,07h,04h,07h,06h
  6B06  060604A4F7FCA0	 db 06,06,04,0A4h,0F7h,0FCh,0A0h,10h,2Ch,83h,81h,3Ch,0C2h,07h,8Ch
                      	
  6B15  04C63A0A020202	 db 04,0C6h,3Ah,0Ah,02,02,02,7Eh,82h,26h,25h,15h,7Ch,0C8h,09,09,08,48h,08,10h,71h,0D0h
  6B2B  1111111928CA0A	 db 11h,11h,11h,19h,28h,0CAh,0Ah,0Ah,06h,0F4h,04h,05,55h,85h,07h,76h,06h,06h,7Ch,84h,04h
  6B40  28D89812322222	 db 28h,0D8h,98h,12h,32h,22h,22h,62h,42h,0C2h,82h,03h,01,01,01,00,00,00,02,04,00,00,09,12h
  6B58  24400000000700	 db 24h,40h,00,00,00,07,00,00,00,38h,24h,5Fh,51h,59h,51h,5Fh,5Fh,24h,1Bh,00,00,03,0Eh,08,08
  6B71  12141912180905	 db 12h,14h,19h,12h,18h,09h,05h,05h,05h,07h,06h,00,00,00,0F0h,58h,0B4h,54h,0BAh,56h,0B1h
  6B86  5DB955B956B25C	 db 5Dh,0B9h,55h,0B9h,56h,0B2h,5Ch,0B4h,58h,0F0h,00,02,00,00,38h,0ECh,32h,0BEh,2Dh,0B4h,2Fh,0BFh
  6B9C  3837E001FE000E	 db 38h,37h,0E0h,01,0FEh,00,0Eh,00,98h
  6BA5                	timx3:
  6BA5  CD3E17        	 call tim255
  6BA8  CD3E17        	 call tim255
  6BAB  CD3E17        	 call tim255
  6BAE  CD3E17        	 call tim255
  6BB1  CD3E17        	 call tim255
  6BB4  C9            	 ret
  6BB5                	msoptm:
  6BB5  CD3319        	 call msop
  6BB8  CDA56B        	 call timx3
  6BBB  21C828        	 ld HL,grd2
  6BBE  0E18          	 ld C,24
  6BC0  CD3319        	 call msop
  6BC3  CDA56B        	 call timx3
  6BC6  C9            	 ret
  6BC7                	opng4:;24*24
  6BC7  11C823        	 ld DE,opng2
  6BCA  1803          	 jr opng3+3
  6BCC                	opng3:;30*32
  6BCC  11DD25        	 ld DE,opng
  6BCF  ED53DD6B      	 ld (opng3l+1),DE
  6BD3  3E01          	 ld A,1
  6BD5  D367          	 out (67h),A
  6BD7  E5            	 push HL
  6BD8  CD2A25        	 call grput2
  6BDB  E1            	 pop HL
  6BDC                	opng3l:
  6BDC  CD0000        	 call 0
  6BDF  AF            	 xor A
  6BE0  D367          	 out (67h),A
  6BE2                	kyarmp:
  6BE2  3E00          	 ld A,0	;不定
  6BE4  F5            	 push AF
  6BE5  21AD66        	 ld HL,kyaram
  6BE8  110600        	 ld DE,6
  6BEB  CD3221        	 call xsan
  6BEE  0E06          	 ld C,6
  6BF0  CD3319        	 call msop
  6BF3  CDA56B        	 call timx3
  6BF6  CDA56B        	 call timx3
  6BF9  F1            	 pop AF
  6BFA  3C            	 inc A
  6BFB  32E36B        	 ld (kyarmp+1),A
  6BFE                	RETPOI:
  6BFE  C9            	 RET
  6BFF                	 END
